; ModuleID = '../test.cpp'
source_filename = "../test.cpp"
target datalayout = "e-m:e-p270:32:32-p271:32:32-p272:64:64-i64:64-i128:128-f80:128-n8:16:32:64-S128"
target triple = "x86_64-unknown-linux-gnu"

module asm ".globl _ZSt21ios_base_library_initv"

%struct.ident_t = type { i32, i32, i32, i32, ptr }
%"class.std::basic_ostream" = type { ptr, %"class.std::basic_ios" }
%"class.std::basic_ios" = type { %"class.std::ios_base", ptr, i8, i8, ptr, ptr, ptr, ptr }
%"class.std::ios_base" = type { ptr, i64, i64, i32, i32, i32, ptr, %"struct.std::ios_base::_Words", [8 x %"struct.std::ios_base::_Words"], i32, ptr, %"class.std::locale" }
%"struct.std::ios_base::_Words" = type { ptr, i64 }
%"class.std::locale" = type { ptr }
%"class.std::vector" = type { %"struct.std::_Vector_base" }
%"struct.std::_Vector_base" = type { %"struct.std::_Vector_base<int, std::allocator<int>>::_Vector_impl" }
%"struct.std::_Vector_base<int, std::allocator<int>>::_Vector_impl" = type { %"struct.std::_Vector_base<int, std::allocator<int>>::_Vector_impl_data" }
%"struct.std::_Vector_base<int, std::allocator<int>>::_Vector_impl_data" = type { ptr, ptr, ptr }
%"class.std::allocator" = type { i8 }
%"struct.std::random_access_iterator_tag" = type { i8 }

$_ZNSt6vectorIiSaIiEEC2EmRKiRKS0_ = comdat any

$_ZNSt6vectorIiSaIiEEixEm = comdat any

$_ZNSt6vectorIiSaIiEED2Ev = comdat any

$_ZNSt6vectorIiSaIiEE17_S_check_init_lenEmRKS0_ = comdat any

$_ZNSt12_Vector_baseIiSaIiEEC2EmRKS0_ = comdat any

$_ZNSt6vectorIiSaIiEE18_M_fill_initializeEmRKi = comdat any

$_ZNSt12_Vector_baseIiSaIiEED2Ev = comdat any

$_ZNSt6vectorIiSaIiEE11_S_max_sizeERKS0_ = comdat any

$_ZSt3minImERKT_S2_S2_ = comdat any

$__clang_call_terminate = comdat any

$_ZNSt12_Vector_baseIiSaIiEE12_Vector_implC2ERKS0_ = comdat any

$_ZNSt12_Vector_baseIiSaIiEE17_M_create_storageEm = comdat any

$_ZNSt12_Vector_baseIiSaIiEE12_Vector_implD2Ev = comdat any

$_ZNSt12_Vector_baseIiSaIiEE17_Vector_impl_dataC2Ev = comdat any

$_ZNSt12_Vector_baseIiSaIiEE11_M_allocateEm = comdat any

$_ZNSt15__new_allocatorIiE8allocateEmPKv = comdat any

$_ZNSt15__new_allocatorIiED2Ev = comdat any

$_ZSt24__uninitialized_fill_n_aIPimiiET_S1_T0_RKT1_RSaIT2_E = comdat any

$_ZNSt12_Vector_baseIiSaIiEE19_M_get_Tp_allocatorEv = comdat any

$_ZSt20uninitialized_fill_nIPimiET_S1_T0_RKT1_ = comdat any

$_ZNSt22__uninitialized_fill_nILb1EE15__uninit_fill_nIPimiEET_S3_T0_RKT1_ = comdat any

$_ZSt6fill_nIPimiET_S1_T0_RKT1_ = comdat any

$_ZSt10__fill_n_aIPimiET_S1_T0_RKT1_St26random_access_iterator_tag = comdat any

$_ZSt17__size_to_integerm = comdat any

$_ZSt8__fill_aIPiiEvT_S1_RKT0_ = comdat any

$_ZSt9__fill_a1IPiiEN9__gnu_cxx11__enable_ifIXsr11__is_scalarIT0_EE7__valueEvE6__typeET_S6_RKS3_ = comdat any

$_ZNSt12_Vector_baseIiSaIiEE13_M_deallocateEPim = comdat any

$_ZNSt15__new_allocatorIiE10deallocateEPim = comdat any

$_ZSt8_DestroyIPiEvT_S1_ = comdat any

$_ZNSt12_Destroy_auxILb1EE9__destroyIPiEEvT_S3_ = comdat any

@0 = private unnamed_addr constant [25 x i8] c";../test.cpp;main;12;5;;\00", align 1
@1 = private unnamed_addr constant %struct.ident_t { i32 0, i32 514, i32 0, i32 24, ptr @0 }, align 8
@2 = private unnamed_addr constant [26 x i8] c";../test.cpp;main;12;46;;\00", align 1
@3 = private unnamed_addr constant %struct.ident_t { i32 0, i32 514, i32 0, i32 25, ptr @2 }, align 8
@.gomp_critical_user_.reduction.var = common global [8 x i32] zeroinitializer, align 8
@4 = private unnamed_addr constant %struct.ident_t { i32 0, i32 18, i32 0, i32 25, ptr @2 }, align 8
@5 = private unnamed_addr constant %struct.ident_t { i32 0, i32 2, i32 0, i32 24, ptr @0 }, align 8
@_ZSt4cout = external global %"class.std::basic_ostream", align 8
@.str = private unnamed_addr constant [36 x i8] c"Sum (parallel for with reduction): \00", align 1, !dbg !0
@6 = private unnamed_addr constant [25 x i8] c";../test.cpp;main;21;5;;\00", align 1
@7 = private unnamed_addr constant %struct.ident_t { i32 0, i32 1026, i32 0, i32 24, ptr @6 }, align 8
@8 = private unnamed_addr constant [26 x i8] c";../test.cpp;main;21;34;;\00", align 1
@9 = private unnamed_addr constant %struct.ident_t { i32 0, i32 1026, i32 0, i32 25, ptr @8 }, align 8
@10 = private unnamed_addr constant %struct.ident_t { i32 0, i32 2, i32 0, i32 24, ptr @6 }, align 8
@.str.3 = private unnamed_addr constant [4 x i8] c"x: \00", align 1, !dbg !8
@.str.4 = private unnamed_addr constant [6 x i8] c", y: \00", align 1, !dbg !13
@11 = private unnamed_addr constant [25 x i8] c";../test.cpp;main;33;5;;\00", align 1
@12 = private unnamed_addr constant %struct.ident_t { i32 0, i32 514, i32 0, i32 24, ptr @11 }, align 8
@13 = private unnamed_addr constant [25 x i8] c";../test.cpp;main;35;9;;\00", align 1
@14 = private unnamed_addr constant %struct.ident_t { i32 0, i32 2, i32 0, i32 24, ptr @13 }, align 8
@.gomp_critical_user_.var = common global [8 x i32] zeroinitializer, align 8
@15 = private unnamed_addr constant [26 x i8] c";../test.cpp;main;33;29;;\00", align 1
@16 = private unnamed_addr constant %struct.ident_t { i32 0, i32 514, i32 0, i32 25, ptr @15 }, align 8
@17 = private unnamed_addr constant %struct.ident_t { i32 0, i32 2, i32 0, i32 24, ptr @11 }, align 8
@.str.7 = private unnamed_addr constant [26 x i8] c"Counter (with critical): \00", align 1, !dbg !18
@18 = private unnamed_addr constant [25 x i8] c";../test.cpp;main;42;5;;\00", align 1
@19 = private unnamed_addr constant %struct.ident_t { i32 0, i32 514, i32 0, i32 24, ptr @18 }, align 8
@20 = private unnamed_addr constant [26 x i8] c";../test.cpp;main;42;29;;\00", align 1
@21 = private unnamed_addr constant %struct.ident_t { i32 0, i32 514, i32 0, i32 25, ptr @20 }, align 8
@22 = private unnamed_addr constant %struct.ident_t { i32 0, i32 2, i32 0, i32 24, ptr @18 }, align 8
@.str.10 = private unnamed_addr constant [17 x i8] c"Atomic Counter: \00", align 1, !dbg !23
@.str.11 = private unnamed_addr constant [32 x i8] c"Vector doubled. First element: \00", align 1, !dbg !28
@.str.12 = private unnamed_addr constant [49 x i8] c"cannot create std::vector larger than max_size()\00", align 1, !dbg !33

; Function Attrs: mustprogress noinline norecurse optnone uwtable
define dso_local noundef i32 @main() #0 personality ptr @__gxx_personality_v0 !dbg !1350 {
entry:
  %this.addr.i45 = alloca ptr, align 8
  %this.addr.i43 = alloca ptr, align 8
  %this.addr.i41 = alloca ptr, align 8
  %this.addr.i = alloca ptr, align 8
  %retval = alloca i32, align 4
  %N = alloca i32, align 4
  %data = alloca %"class.std::vector", align 8
  %ref.tmp = alloca i32, align 4
  %ref.tmp1 = alloca %"class.std::allocator", align 1
  %exn.slot = alloca ptr, align 8
  %ehselector.slot = alloca i32, align 4
  %sum = alloca i32, align 4
  %x = alloca i32, align 4
  %y = alloca i32, align 4
  %counter = alloca i32, align 4
  %atomic_counter = alloca i32, align 4
  %tmp = alloca i32, align 4
  %.omp.iv = alloca i32, align 4
  %i = alloca i32, align 4
  store i32 0, ptr %retval, align 4
    #dbg_declare(ptr %N, !1351, !DIExpression(), !1352)
  store i32 1000, ptr %N, align 4, !dbg !1352
    #dbg_declare(ptr %data, !1353, !DIExpression(), !1354)
  store i32 1, ptr %ref.tmp, align 4, !dbg !1355
  store ptr %ref.tmp1, ptr %this.addr.i, align 8
    #dbg_declare(ptr %this.addr.i, !1356, !DIExpression(), !1359)
  %this1.i = load ptr, ptr %this.addr.i, align 8
  store ptr %this1.i, ptr %this.addr.i45, align 8
    #dbg_declare(ptr %this.addr.i45, !1361, !DIExpression(), !1364)
  %this1.i46 = load ptr, ptr %this.addr.i45, align 8
  invoke void @_ZNSt6vectorIiSaIiEEC2EmRKiRKS0_(ptr noundef nonnull align 8 dereferenceable(24) %data, i64 noundef 1000, ptr noundef nonnull align 4 dereferenceable(4) %ref.tmp, ptr noundef nonnull align 1 dereferenceable(1) %ref.tmp1)
          to label %invoke.cont unwind label %lpad, !dbg !1354

invoke.cont:                                      ; preds = %entry
  store ptr %ref.tmp1, ptr %this.addr.i41, align 8
    #dbg_declare(ptr %this.addr.i41, !1366, !DIExpression(), !1368)
  %this1.i42 = load ptr, ptr %this.addr.i41, align 8
  call void @_ZNSt15__new_allocatorIiED2Ev(ptr noundef nonnull align 1 dereferenceable(1) %this1.i42) #3, !dbg !1370
    #dbg_declare(ptr %sum, !1372, !DIExpression(), !1373)
  store i32 0, ptr %sum, align 4, !dbg !1373
  call void (ptr, i32, ptr, ...) @__kmpc_fork_call(ptr @5, i32 3, ptr @main.omp_outlined, ptr %sum, ptr %data, ptr %N), !dbg !1374
  %call = invoke noundef nonnull align 8 dereferenceable(8) ptr @_ZStlsISt11char_traitsIcEERSt13basic_ostreamIcT_ES5_PKc(ptr noundef nonnull align 8 dereferenceable(8) @_ZSt4cout, ptr noundef @.str)
          to label %invoke.cont3 unwind label %lpad2, !dbg !1375

invoke.cont3:                                     ; preds = %invoke.cont
  %0 = load i32, ptr %sum, align 4, !dbg !1376
  %call5 = invoke noundef nonnull align 8 dereferenceable(8) ptr @_ZNSolsEi(ptr noundef nonnull align 8 dereferenceable(8) %call, i32 noundef %0)
          to label %invoke.cont4 unwind label %lpad2, !dbg !1377

invoke.cont4:                                     ; preds = %invoke.cont3
  %call7 = invoke noundef nonnull align 8 dereferenceable(8) ptr @_ZNSolsEPFRSoS_E(ptr noundef nonnull align 8 dereferenceable(8) %call5, ptr noundef @_ZSt4endlIcSt11char_traitsIcEERSt13basic_ostreamIT_T0_ES6_)
          to label %invoke.cont6 unwind label %lpad2, !dbg !1378

invoke.cont6:                                     ; preds = %invoke.cont4
    #dbg_declare(ptr %x, !1379, !DIExpression(), !1380)
  store i32 0, ptr %x, align 4, !dbg !1380
    #dbg_declare(ptr %y, !1381, !DIExpression(), !1382)
  store i32 0, ptr %y, align 4, !dbg !1382
  call void (ptr, i32, ptr, ...) @__kmpc_fork_call(ptr @10, i32 2, ptr @main.omp_outlined.1, ptr %x, ptr %y), !dbg !1383
  %call9 = invoke noundef nonnull align 8 dereferenceable(8) ptr @_ZStlsISt11char_traitsIcEERSt13basic_ostreamIcT_ES5_PKc(ptr noundef nonnull align 8 dereferenceable(8) @_ZSt4cout, ptr noundef @.str.3)
          to label %invoke.cont8 unwind label %lpad2, !dbg !1384

invoke.cont8:                                     ; preds = %invoke.cont6
  %1 = load i32, ptr %x, align 4, !dbg !1385
  %call11 = invoke noundef nonnull align 8 dereferenceable(8) ptr @_ZNSolsEi(ptr noundef nonnull align 8 dereferenceable(8) %call9, i32 noundef %1)
          to label %invoke.cont10 unwind label %lpad2, !dbg !1386

invoke.cont10:                                    ; preds = %invoke.cont8
  %call13 = invoke noundef nonnull align 8 dereferenceable(8) ptr @_ZStlsISt11char_traitsIcEERSt13basic_ostreamIcT_ES5_PKc(ptr noundef nonnull align 8 dereferenceable(8) %call11, ptr noundef @.str.4)
          to label %invoke.cont12 unwind label %lpad2, !dbg !1387

invoke.cont12:                                    ; preds = %invoke.cont10
  %2 = load i32, ptr %y, align 4, !dbg !1388
  %call15 = invoke noundef nonnull align 8 dereferenceable(8) ptr @_ZNSolsEi(ptr noundef nonnull align 8 dereferenceable(8) %call13, i32 noundef %2)
          to label %invoke.cont14 unwind label %lpad2, !dbg !1389

invoke.cont14:                                    ; preds = %invoke.cont12
  %call17 = invoke noundef nonnull align 8 dereferenceable(8) ptr @_ZNSolsEPFRSoS_E(ptr noundef nonnull align 8 dereferenceable(8) %call15, ptr noundef @_ZSt4endlIcSt11char_traitsIcEERSt13basic_ostreamIT_T0_ES6_)
          to label %invoke.cont16 unwind label %lpad2, !dbg !1390

invoke.cont16:                                    ; preds = %invoke.cont14
    #dbg_declare(ptr %counter, !1391, !DIExpression(), !1392)
  store i32 0, ptr %counter, align 4, !dbg !1392
  call void (ptr, i32, ptr, ...) @__kmpc_fork_call(ptr @17, i32 1, ptr @main.omp_outlined.5, ptr %counter), !dbg !1393
  %call19 = invoke noundef nonnull align 8 dereferenceable(8) ptr @_ZStlsISt11char_traitsIcEERSt13basic_ostreamIcT_ES5_PKc(ptr noundef nonnull align 8 dereferenceable(8) @_ZSt4cout, ptr noundef @.str.7)
          to label %invoke.cont18 unwind label %lpad2, !dbg !1394

invoke.cont18:                                    ; preds = %invoke.cont16
  %3 = load i32, ptr %counter, align 4, !dbg !1395
  %call21 = invoke noundef nonnull align 8 dereferenceable(8) ptr @_ZNSolsEi(ptr noundef nonnull align 8 dereferenceable(8) %call19, i32 noundef %3)
          to label %invoke.cont20 unwind label %lpad2, !dbg !1396

invoke.cont20:                                    ; preds = %invoke.cont18
  %call23 = invoke noundef nonnull align 8 dereferenceable(8) ptr @_ZNSolsEPFRSoS_E(ptr noundef nonnull align 8 dereferenceable(8) %call21, ptr noundef @_ZSt4endlIcSt11char_traitsIcEERSt13basic_ostreamIT_T0_ES6_)
          to label %invoke.cont22 unwind label %lpad2, !dbg !1397

invoke.cont22:                                    ; preds = %invoke.cont20
    #dbg_declare(ptr %atomic_counter, !1398, !DIExpression(), !1399)
  store i32 0, ptr %atomic_counter, align 4, !dbg !1399
  call void (ptr, i32, ptr, ...) @__kmpc_fork_call(ptr @22, i32 1, ptr @main.omp_outlined.8, ptr %atomic_counter), !dbg !1400
  %call25 = invoke noundef nonnull align 8 dereferenceable(8) ptr @_ZStlsISt11char_traitsIcEERSt13basic_ostreamIcT_ES5_PKc(ptr noundef nonnull align 8 dereferenceable(8) @_ZSt4cout, ptr noundef @.str.10)
          to label %invoke.cont24 unwind label %lpad2, !dbg !1401

invoke.cont24:                                    ; preds = %invoke.cont22
  %4 = load i32, ptr %atomic_counter, align 4, !dbg !1402
  %call27 = invoke noundef nonnull align 8 dereferenceable(8) ptr @_ZNSolsEi(ptr noundef nonnull align 8 dereferenceable(8) %call25, i32 noundef %4)
          to label %invoke.cont26 unwind label %lpad2, !dbg !1403

invoke.cont26:                                    ; preds = %invoke.cont24
  %call29 = invoke noundef nonnull align 8 dereferenceable(8) ptr @_ZNSolsEPFRSoS_E(ptr noundef nonnull align 8 dereferenceable(8) %call27, ptr noundef @_ZSt4endlIcSt11char_traitsIcEERSt13basic_ostreamIT_T0_ES6_)
          to label %invoke.cont28 unwind label %lpad2, !dbg !1404

invoke.cont28:                                    ; preds = %invoke.cont26
    #dbg_declare(ptr %.omp.iv, !1405, !DIExpression(), !1407)
  store i32 0, ptr %.omp.iv, align 4, !dbg !1408
    #dbg_declare(ptr %i, !1409, !DIExpression(), !1407)
  br label %omp.inner.for.cond, !dbg !1410

omp.inner.for.cond:                               ; preds = %omp.inner.for.inc, %invoke.cont28
  %5 = load i32, ptr %.omp.iv, align 4, !dbg !1408, !llvm.access.group !1411
  %cmp = icmp slt i32 %5, 1000, !dbg !1412
  br i1 %cmp, label %omp.inner.for.body, label %omp.inner.for.end, !dbg !1410

omp.inner.for.body:                               ; preds = %omp.inner.for.cond
  %6 = load i32, ptr %.omp.iv, align 4, !dbg !1408, !llvm.access.group !1411
  %mul = mul nsw i32 %6, 1, !dbg !1413
  %add = add nsw i32 0, %mul, !dbg !1413
  store i32 %add, ptr %i, align 4, !dbg !1413, !llvm.access.group !1411
  %7 = load i32, ptr %i, align 4, !dbg !1414, !llvm.access.group !1411
  %conv = sext i32 %7 to i64, !dbg !1414
  %call30 = call noundef nonnull align 4 dereferenceable(4) ptr @_ZNSt6vectorIiSaIiEEixEm(ptr noundef nonnull align 8 dereferenceable(24) %data, i64 noundef %conv) #3, !dbg !1416, !llvm.access.group !1411
  %8 = load i32, ptr %call30, align 4, !dbg !1417, !llvm.access.group !1411
  %mul31 = mul nsw i32 %8, 2, !dbg !1417
  store i32 %mul31, ptr %call30, align 4, !dbg !1417, !llvm.access.group !1411
  br label %omp.body.continue, !dbg !1418

omp.body.continue:                                ; preds = %omp.inner.for.body
  br label %omp.inner.for.inc, !dbg !1419

omp.inner.for.inc:                                ; preds = %omp.body.continue
  %9 = load i32, ptr %.omp.iv, align 4, !dbg !1408, !llvm.access.group !1411
  %add32 = add nsw i32 %9, 1, !dbg !1412
  store i32 %add32, ptr %.omp.iv, align 4, !dbg !1412, !llvm.access.group !1411
  br label %omp.inner.for.cond, !dbg !1419, !llvm.loop !1420

lpad:                                             ; preds = %entry
  %10 = landingpad { ptr, i32 }
          cleanup, !dbg !1424
  %11 = extractvalue { ptr, i32 } %10, 0, !dbg !1424
  store ptr %11, ptr %exn.slot, align 8, !dbg !1424
  %12 = extractvalue { ptr, i32 } %10, 1, !dbg !1424
  store i32 %12, ptr %ehselector.slot, align 4, !dbg !1424
  store ptr %ref.tmp1, ptr %this.addr.i43, align 8
    #dbg_declare(ptr %this.addr.i43, !1366, !DIExpression(), !1425)
  %this1.i44 = load ptr, ptr %this.addr.i43, align 8
  call void @_ZNSt15__new_allocatorIiED2Ev(ptr noundef nonnull align 1 dereferenceable(1) %this1.i44) #3, !dbg !1427
  br label %eh.resume, !dbg !1354

lpad2:                                            ; preds = %invoke.cont36, %invoke.cont33, %omp.inner.for.end, %invoke.cont26, %invoke.cont24, %invoke.cont22, %invoke.cont20, %invoke.cont18, %invoke.cont16, %invoke.cont14, %invoke.cont12, %invoke.cont10, %invoke.cont8, %invoke.cont6, %invoke.cont4, %invoke.cont3, %invoke.cont
  %13 = landingpad { ptr, i32 }
          cleanup, !dbg !1424
  %14 = extractvalue { ptr, i32 } %13, 0, !dbg !1424
  store ptr %14, ptr %exn.slot, align 8, !dbg !1424
  %15 = extractvalue { ptr, i32 } %13, 1, !dbg !1424
  store i32 %15, ptr %ehselector.slot, align 4, !dbg !1424
  call void @_ZNSt6vectorIiSaIiEED2Ev(ptr noundef nonnull align 8 dereferenceable(24) %data) #3, !dbg !1424
  br label %eh.resume, !dbg !1424

omp.inner.for.end:                                ; preds = %omp.inner.for.cond
  store i32 1000, ptr %i, align 4, !dbg !1413
  %call34 = invoke noundef nonnull align 8 dereferenceable(8) ptr @_ZStlsISt11char_traitsIcEERSt13basic_ostreamIcT_ES5_PKc(ptr noundef nonnull align 8 dereferenceable(8) @_ZSt4cout, ptr noundef @.str.11)
          to label %invoke.cont33 unwind label %lpad2, !dbg !1428

invoke.cont33:                                    ; preds = %omp.inner.for.end
  %call35 = call noundef nonnull align 4 dereferenceable(4) ptr @_ZNSt6vectorIiSaIiEEixEm(ptr noundef nonnull align 8 dereferenceable(24) %data, i64 noundef 0) #3, !dbg !1429
  %16 = load i32, ptr %call35, align 4, !dbg !1429
  %call37 = invoke noundef nonnull align 8 dereferenceable(8) ptr @_ZNSolsEi(ptr noundef nonnull align 8 dereferenceable(8) %call34, i32 noundef %16)
          to label %invoke.cont36 unwind label %lpad2, !dbg !1430

invoke.cont36:                                    ; preds = %invoke.cont33
  %call39 = invoke noundef nonnull align 8 dereferenceable(8) ptr @_ZNSolsEPFRSoS_E(ptr noundef nonnull align 8 dereferenceable(8) %call37, ptr noundef @_ZSt4endlIcSt11char_traitsIcEERSt13basic_ostreamIT_T0_ES6_)
          to label %invoke.cont38 unwind label %lpad2, !dbg !1431

invoke.cont38:                                    ; preds = %invoke.cont36
  store i32 0, ptr %retval, align 4, !dbg !1432
  call void @_ZNSt6vectorIiSaIiEED2Ev(ptr noundef nonnull align 8 dereferenceable(24) %data) #3, !dbg !1424
  %17 = load i32, ptr %retval, align 4, !dbg !1424
  ret i32 %17, !dbg !1424

eh.resume:                                        ; preds = %lpad2, %lpad
  %exn = load ptr, ptr %exn.slot, align 8, !dbg !1354
  %sel = load i32, ptr %ehselector.slot, align 4, !dbg !1354
  %lpad.val = insertvalue { ptr, i32 } poison, ptr %exn, 0, !dbg !1354
  %lpad.val40 = insertvalue { ptr, i32 } %lpad.val, i32 %sel, 1, !dbg !1354
  resume { ptr, i32 } %lpad.val40, !dbg !1354
}

; Function Attrs: mustprogress noinline optnone uwtable
define linkonce_odr dso_local void @_ZNSt6vectorIiSaIiEEC2EmRKiRKS0_(ptr noundef nonnull align 8 dereferenceable(24) %this, i64 noundef %__n, ptr noundef nonnull align 4 dereferenceable(4) %__value, ptr noundef nonnull align 1 dereferenceable(1) %__a) unnamed_addr #1 comdat align 2 personality ptr @__gxx_personality_v0 !dbg !1433 {
entry:
  %this.addr = alloca ptr, align 8
  %__n.addr = alloca i64, align 8
  %__value.addr = alloca ptr, align 8
  %__a.addr = alloca ptr, align 8
  %exn.slot = alloca ptr, align 8
  %ehselector.slot = alloca i32, align 4
  store ptr %this, ptr %this.addr, align 8
    #dbg_declare(ptr %this.addr, !1434, !DIExpression(), !1436)
  store i64 %__n, ptr %__n.addr, align 8
    #dbg_declare(ptr %__n.addr, !1437, !DIExpression(), !1438)
  store ptr %__value, ptr %__value.addr, align 8
    #dbg_declare(ptr %__value.addr, !1439, !DIExpression(), !1440)
  store ptr %__a, ptr %__a.addr, align 8
    #dbg_declare(ptr %__a.addr, !1441, !DIExpression(), !1442)
  %this1 = load ptr, ptr %this.addr, align 8
  %0 = load i64, ptr %__n.addr, align 8, !dbg !1443
  %1 = load ptr, ptr %__a.addr, align 8, !dbg !1444, !nonnull !176
  %call = call noundef i64 @_ZNSt6vectorIiSaIiEE17_S_check_init_lenEmRKS0_(i64 noundef %0, ptr noundef nonnull align 1 dereferenceable(1) %1), !dbg !1445
  %2 = load ptr, ptr %__a.addr, align 8, !dbg !1446, !nonnull !176
  call void @_ZNSt12_Vector_baseIiSaIiEEC2EmRKS0_(ptr noundef nonnull align 8 dereferenceable(24) %this1, i64 noundef %call, ptr noundef nonnull align 1 dereferenceable(1) %2), !dbg !1447
  %3 = load i64, ptr %__n.addr, align 8, !dbg !1448
  %4 = load ptr, ptr %__value.addr, align 8, !dbg !1450, !nonnull !176, !align !1451
  invoke void @_ZNSt6vectorIiSaIiEE18_M_fill_initializeEmRKi(ptr noundef nonnull align 8 dereferenceable(24) %this1, i64 noundef %3, ptr noundef nonnull align 4 dereferenceable(4) %4)
          to label %invoke.cont unwind label %lpad, !dbg !1452

invoke.cont:                                      ; preds = %entry
  ret void, !dbg !1453

lpad:                                             ; preds = %entry
  %5 = landingpad { ptr, i32 }
          cleanup, !dbg !1454
  %6 = extractvalue { ptr, i32 } %5, 0, !dbg !1454
  store ptr %6, ptr %exn.slot, align 8, !dbg !1454
  %7 = extractvalue { ptr, i32 } %5, 1, !dbg !1454
  store i32 %7, ptr %ehselector.slot, align 4, !dbg !1454
  call void @_ZNSt12_Vector_baseIiSaIiEED2Ev(ptr noundef nonnull align 8 dereferenceable(24) %this1) #3, !dbg !1454
  br label %eh.resume, !dbg !1454

eh.resume:                                        ; preds = %lpad
  %exn = load ptr, ptr %exn.slot, align 8, !dbg !1454
  %sel = load i32, ptr %ehselector.slot, align 4, !dbg !1454
  %lpad.val = insertvalue { ptr, i32 } poison, ptr %exn, 0, !dbg !1454
  %lpad.val2 = insertvalue { ptr, i32 } %lpad.val, i32 %sel, 1, !dbg !1454
  resume { ptr, i32 } %lpad.val2, !dbg !1454
}

declare i32 @__gxx_personality_v0(...)

; Function Attrs: noinline norecurse nounwind optnone uwtable
define internal void @main.omp_outlined_debug__(ptr noalias noundef %.global_tid., ptr noalias noundef %.bound_tid., ptr noundef nonnull align 4 dereferenceable(4) %sum, ptr noundef nonnull align 8 dereferenceable(24) %data, ptr noundef nonnull align 4 dereferenceable(4) %N) #2 !dbg !1455 {
entry:
  %.global_tid..addr = alloca ptr, align 8
  %.bound_tid..addr = alloca ptr, align 8
  %sum.addr = alloca ptr, align 8
  %data.addr = alloca ptr, align 8
  %N.addr = alloca ptr, align 8
  %.omp.iv = alloca i32, align 4
  %tmp = alloca i32, align 4
  %.omp.lb = alloca i32, align 4
  %.omp.ub = alloca i32, align 4
  %.omp.stride = alloca i32, align 4
  %.omp.is_last = alloca i32, align 4
  %sum1 = alloca i32, align 4
  %i = alloca i32, align 4
  %.omp.reduction.red_list = alloca [1 x ptr], align 8
  store ptr %.global_tid., ptr %.global_tid..addr, align 8
    #dbg_declare(ptr %.global_tid..addr, !1460, !DIExpression(), !1461)
  store ptr %.bound_tid., ptr %.bound_tid..addr, align 8
    #dbg_declare(ptr %.bound_tid..addr, !1462, !DIExpression(), !1461)
  store ptr %sum, ptr %sum.addr, align 8
    #dbg_declare(ptr %sum.addr, !1463, !DIExpression(), !1464)
  store ptr %data, ptr %data.addr, align 8
    #dbg_declare(ptr %data.addr, !1465, !DIExpression(), !1466)
  store ptr %N, ptr %N.addr, align 8
    #dbg_declare(ptr %N.addr, !1467, !DIExpression(), !1468)
  %0 = load ptr, ptr %sum.addr, align 8, !dbg !1469, !nonnull !176, !align !1451
  %1 = load ptr, ptr %data.addr, align 8, !dbg !1469, !nonnull !176, !align !1470
  %2 = load ptr, ptr %N.addr, align 8, !dbg !1469, !nonnull !176, !align !1451
    #dbg_declare(ptr %.omp.iv, !1471, !DIExpression(), !1461)
    #dbg_declare(ptr %.omp.lb, !1472, !DIExpression(), !1461)
  store i32 0, ptr %.omp.lb, align 4, !dbg !1473
    #dbg_declare(ptr %.omp.ub, !1474, !DIExpression(), !1461)
  store i32 999, ptr %.omp.ub, align 4, !dbg !1473
    #dbg_declare(ptr %.omp.stride, !1475, !DIExpression(), !1461)
  store i32 1, ptr %.omp.stride, align 4, !dbg !1473
    #dbg_declare(ptr %.omp.is_last, !1476, !DIExpression(), !1461)
  store i32 0, ptr %.omp.is_last, align 4, !dbg !1473
    #dbg_declare(ptr %sum1, !1477, !DIExpression(), !1461)
  store i32 0, ptr %sum1, align 4, !dbg !1478
    #dbg_declare(ptr %i, !1479, !DIExpression(), !1461)
  %3 = load ptr, ptr %.global_tid..addr, align 8, !dbg !1469
  %4 = load i32, ptr %3, align 4, !dbg !1469
  call void @__kmpc_for_static_init_4(ptr @1, i32 %4, i32 34, ptr %.omp.is_last, ptr %.omp.lb, ptr %.omp.ub, ptr %.omp.stride, i32 1, i32 1), !dbg !1480
  %5 = load i32, ptr %.omp.ub, align 4, !dbg !1473
  %cmp = icmp sgt i32 %5, 999, !dbg !1473
  br i1 %cmp, label %cond.true, label %cond.false, !dbg !1473

cond.true:                                        ; preds = %entry
  br label %cond.end, !dbg !1473

cond.false:                                       ; preds = %entry
  %6 = load i32, ptr %.omp.ub, align 4, !dbg !1473
  br label %cond.end, !dbg !1473

cond.end:                                         ; preds = %cond.false, %cond.true
  %cond = phi i32 [ 999, %cond.true ], [ %6, %cond.false ], !dbg !1473
  store i32 %cond, ptr %.omp.ub, align 4, !dbg !1473
  %7 = load i32, ptr %.omp.lb, align 4, !dbg !1473
  store i32 %7, ptr %.omp.iv, align 4, !dbg !1473
  br label %omp.inner.for.cond, !dbg !1469

omp.inner.for.cond:                               ; preds = %omp.inner.for.inc, %cond.end
  %8 = load i32, ptr %.omp.iv, align 4, !dbg !1473
  %9 = load i32, ptr %.omp.ub, align 4, !dbg !1473
  %cmp2 = icmp sle i32 %8, %9, !dbg !1469
  br i1 %cmp2, label %omp.inner.for.body, label %omp.inner.for.end, !dbg !1469

omp.inner.for.body:                               ; preds = %omp.inner.for.cond
  %10 = load i32, ptr %.omp.iv, align 4, !dbg !1473
  %mul = mul nsw i32 %10, 1, !dbg !1481
  %add = add nsw i32 0, %mul, !dbg !1481
  store i32 %add, ptr %i, align 4, !dbg !1481
  %11 = load i32, ptr %i, align 4, !dbg !1482
  %conv = sext i32 %11 to i64, !dbg !1482
  %call = call noundef nonnull align 4 dereferenceable(4) ptr @_ZNSt6vectorIiSaIiEEixEm(ptr noundef nonnull align 8 dereferenceable(24) %1, i64 noundef %conv) #3, !dbg !1484
  %12 = load i32, ptr %call, align 4, !dbg !1484
  %13 = load i32, ptr %sum1, align 4, !dbg !1485
  %add3 = add nsw i32 %13, %12, !dbg !1485
  store i32 %add3, ptr %sum1, align 4, !dbg !1485
  br label %omp.body.continue, !dbg !1486

omp.body.continue:                                ; preds = %omp.inner.for.body
  br label %omp.inner.for.inc, !dbg !1480

omp.inner.for.inc:                                ; preds = %omp.body.continue
  %14 = load i32, ptr %.omp.iv, align 4, !dbg !1473
  %add4 = add nsw i32 %14, 1, !dbg !1469
  store i32 %add4, ptr %.omp.iv, align 4, !dbg !1469
  br label %omp.inner.for.cond, !dbg !1480, !llvm.loop !1487

omp.inner.for.end:                                ; preds = %omp.inner.for.cond
  br label %omp.loop.exit, !dbg !1480

omp.loop.exit:                                    ; preds = %omp.inner.for.end
  call void @__kmpc_for_static_fini(ptr @3, i32 %4), !dbg !1488
  %15 = getelementptr inbounds [1 x ptr], ptr %.omp.reduction.red_list, i64 0, i64 0, !dbg !1480
  store ptr %sum1, ptr %15, align 8, !dbg !1480
  %16 = call i32 @__kmpc_reduce_nowait(ptr @4, i32 %4, i32 1, i64 8, ptr %.omp.reduction.red_list, ptr @main.omp_outlined_debug__.omp.reduction.reduction_func, ptr @.gomp_critical_user_.reduction.var), !dbg !1480
  switch i32 %16, label %.omp.reduction.default [
    i32 1, label %.omp.reduction.case1
    i32 2, label %.omp.reduction.case2
  ], !dbg !1480

.omp.reduction.case1:                             ; preds = %omp.loop.exit
  %17 = load i32, ptr %0, align 4, !dbg !1478
  %18 = load i32, ptr %sum1, align 4, !dbg !1478
  %add5 = add nsw i32 %17, %18, !dbg !1489
  store i32 %add5, ptr %0, align 4, !dbg !1489
  call void @__kmpc_end_reduce_nowait(ptr @4, i32 %4, ptr @.gomp_critical_user_.reduction.var), !dbg !1480
  br label %.omp.reduction.default, !dbg !1480

.omp.reduction.case2:                             ; preds = %omp.loop.exit
  %19 = load i32, ptr %sum1, align 4, !dbg !1478
  %20 = atomicrmw add ptr %0, i32 %19 monotonic, align 4, !dbg !1480
  br label %.omp.reduction.default, !dbg !1480

.omp.reduction.default:                           ; preds = %.omp.reduction.case2, %.omp.reduction.case1, %omp.loop.exit
  ret void, !dbg !1490
}

; Function Attrs: noinline norecurse nounwind optnone uwtable
define internal void @main.omp_outlined(ptr noalias noundef %.global_tid., ptr noalias noundef %.bound_tid., ptr noundef nonnull align 4 dereferenceable(4) %sum, ptr noundef nonnull align 8 dereferenceable(24) %data, ptr noundef nonnull align 4 dereferenceable(4) %N) #2 !dbg !1491 {
entry:
  %.global_tid..addr = alloca ptr, align 8
  %.bound_tid..addr = alloca ptr, align 8
  %sum.addr = alloca ptr, align 8
  %data.addr = alloca ptr, align 8
  %N.addr = alloca ptr, align 8
  store ptr %.global_tid., ptr %.global_tid..addr, align 8
    #dbg_declare(ptr %.global_tid..addr, !1492, !DIExpression(), !1493)
  store ptr %.bound_tid., ptr %.bound_tid..addr, align 8
    #dbg_declare(ptr %.bound_tid..addr, !1494, !DIExpression(), !1493)
  store ptr %sum, ptr %sum.addr, align 8
    #dbg_declare(ptr %sum.addr, !1495, !DIExpression(), !1493)
  store ptr %data, ptr %data.addr, align 8
    #dbg_declare(ptr %data.addr, !1496, !DIExpression(), !1493)
  store ptr %N, ptr %N.addr, align 8
    #dbg_declare(ptr %N.addr, !1497, !DIExpression(), !1493)
  %0 = load ptr, ptr %sum.addr, align 8, !dbg !1498, !nonnull !176, !align !1451
  %1 = load ptr, ptr %data.addr, align 8, !dbg !1498, !nonnull !176, !align !1470
  %2 = load ptr, ptr %N.addr, align 8, !dbg !1498, !nonnull !176, !align !1451
  %3 = load ptr, ptr %.global_tid..addr, align 8, !dbg !1498
  %4 = load ptr, ptr %.bound_tid..addr, align 8, !dbg !1498
  %5 = load ptr, ptr %sum.addr, align 8, !dbg !1498
  %6 = load ptr, ptr %data.addr, align 8, !dbg !1498
  %7 = load ptr, ptr %N.addr, align 8, !dbg !1498
  call void @main.omp_outlined_debug__(ptr %3, ptr %4, ptr %5, ptr %6, ptr %7) #3, !dbg !1498
  ret void, !dbg !1498
}

; Function Attrs: nounwind
declare void @__kmpc_for_static_init_4(ptr, i32, i32, ptr, ptr, ptr, ptr, i32, i32) #3

; Function Attrs: mustprogress noinline nounwind optnone uwtable
define linkonce_odr dso_local noundef nonnull align 4 dereferenceable(4) ptr @_ZNSt6vectorIiSaIiEEixEm(ptr noundef nonnull align 8 dereferenceable(24) %this, i64 noundef %__n) #4 comdat align 2 !dbg !1499 {
entry:
  %this.addr = alloca ptr, align 8
  %__n.addr = alloca i64, align 8
  store ptr %this, ptr %this.addr, align 8
    #dbg_declare(ptr %this.addr, !1500, !DIExpression(), !1501)
  store i64 %__n, ptr %__n.addr, align 8
    #dbg_declare(ptr %__n.addr, !1502, !DIExpression(), !1503)
  %this1 = load ptr, ptr %this.addr, align 8
  %_M_impl = getelementptr inbounds nuw %"struct.std::_Vector_base", ptr %this1, i32 0, i32 0, !dbg !1504
  %_M_start = getelementptr inbounds nuw %"struct.std::_Vector_base<int, std::allocator<int>>::_Vector_impl_data", ptr %_M_impl, i32 0, i32 0, !dbg !1505
  %0 = load ptr, ptr %_M_start, align 8, !dbg !1505
  %1 = load i64, ptr %__n.addr, align 8, !dbg !1506
  %add.ptr = getelementptr inbounds nuw i32, ptr %0, i64 %1, !dbg !1507
  ret ptr %add.ptr, !dbg !1508
}

; Function Attrs: nounwind
declare void @__kmpc_for_static_fini(ptr, i32) #3

; Function Attrs: noinline norecurse uwtable
define internal void @main.omp_outlined_debug__.omp.reduction.reduction_func(ptr noundef %0, ptr noundef %1) #5 !dbg !1509 {
entry:
  %.addr = alloca ptr, align 8
  %.addr1 = alloca ptr, align 8
  store ptr %0, ptr %.addr, align 8
    #dbg_declare(ptr %.addr, !1511, !DIExpression(), !1512)
  store ptr %1, ptr %.addr1, align 8
    #dbg_declare(ptr %.addr1, !1513, !DIExpression(), !1512)
  %2 = load ptr, ptr %.addr, align 8, !dbg !1514
  %3 = load ptr, ptr %.addr1, align 8, !dbg !1514
  %4 = getelementptr inbounds [1 x ptr], ptr %3, i64 0, i64 0, !dbg !1514
  %5 = load ptr, ptr %4, align 8, !dbg !1514
  %6 = getelementptr inbounds [1 x ptr], ptr %2, i64 0, i64 0, !dbg !1514
  %7 = load ptr, ptr %6, align 8, !dbg !1514
  %8 = load i32, ptr %7, align 4, !dbg !1515
  %9 = load i32, ptr %5, align 4, !dbg !1515
  %add = add nsw i32 %8, %9, !dbg !1516
  store i32 %add, ptr %7, align 4, !dbg !1516
  ret void, !dbg !1515
}

; Function Attrs: convergent nounwind
declare i32 @__kmpc_reduce_nowait(ptr, i32, i32, i64, ptr, ptr, ptr) #6

; Function Attrs: convergent nounwind
declare void @__kmpc_end_reduce_nowait(ptr, i32, ptr) #6

; Function Attrs: nounwind
declare !callback !1517 void @__kmpc_fork_call(ptr, i32, ptr, ...) #3

declare noundef nonnull align 8 dereferenceable(8) ptr @_ZStlsISt11char_traitsIcEERSt13basic_ostreamIcT_ES5_PKc(ptr noundef nonnull align 8 dereferenceable(8), ptr noundef) #7

declare noundef nonnull align 8 dereferenceable(8) ptr @_ZNSolsEi(ptr noundef nonnull align 8 dereferenceable(8), i32 noundef) #7

declare noundef nonnull align 8 dereferenceable(8) ptr @_ZNSolsEPFRSoS_E(ptr noundef nonnull align 8 dereferenceable(8), ptr noundef) #7

declare noundef nonnull align 8 dereferenceable(8) ptr @_ZSt4endlIcSt11char_traitsIcEERSt13basic_ostreamIT_T0_ES6_(ptr noundef nonnull align 8 dereferenceable(8)) #7

; Function Attrs: noinline norecurse optnone uwtable
define internal void @main.omp_outlined_debug__.2(ptr noalias noundef %.global_tid., ptr noalias noundef %.bound_tid., ptr noundef nonnull align 4 dereferenceable(4) %x, ptr noundef nonnull align 4 dereferenceable(4) %y) #8 !dbg !1519 {
entry:
  %.global_tid..addr = alloca ptr, align 8
  %.bound_tid..addr = alloca ptr, align 8
  %x.addr = alloca ptr, align 8
  %y.addr = alloca ptr, align 8
  %.omp.sections.lb. = alloca i32, align 4
  %.omp.sections.ub. = alloca i32, align 4
  %.omp.sections.st. = alloca i32, align 4
  %.omp.sections.il. = alloca i32, align 4
  %.omp.sections.iv. = alloca i32, align 4
  store ptr %.global_tid., ptr %.global_tid..addr, align 8
    #dbg_declare(ptr %.global_tid..addr, !1522, !DIExpression(), !1523)
  store ptr %.bound_tid., ptr %.bound_tid..addr, align 8
    #dbg_declare(ptr %.bound_tid..addr, !1524, !DIExpression(), !1523)
  store ptr %x, ptr %x.addr, align 8
    #dbg_declare(ptr %x.addr, !1525, !DIExpression(), !1526)
  store ptr %y, ptr %y.addr, align 8
    #dbg_declare(ptr %y.addr, !1527, !DIExpression(), !1528)
  %0 = load ptr, ptr %x.addr, align 8, !dbg !1529, !nonnull !176, !align !1451
  %1 = load ptr, ptr %y.addr, align 8, !dbg !1529, !nonnull !176, !align !1451
  store i32 0, ptr %.omp.sections.lb., align 4, !dbg !1529
  store i32 1, ptr %.omp.sections.ub., align 4, !dbg !1529
  store i32 1, ptr %.omp.sections.st., align 4, !dbg !1529
  store i32 0, ptr %.omp.sections.il., align 4, !dbg !1529
  %2 = load ptr, ptr %.global_tid..addr, align 8, !dbg !1529
  %3 = load i32, ptr %2, align 4, !dbg !1529
  call void @__kmpc_for_static_init_4(ptr @7, i32 %3, i32 34, ptr %.omp.sections.il., ptr %.omp.sections.lb., ptr %.omp.sections.ub., ptr %.omp.sections.st., i32 1, i32 1), !dbg !1530
  %4 = load i32, ptr %.omp.sections.ub., align 4, !dbg !1529
  %5 = icmp slt i32 %4, 1, !dbg !1529
  %6 = select i1 %5, i32 %4, i32 1, !dbg !1529
  store i32 %6, ptr %.omp.sections.ub., align 4, !dbg !1529
  %7 = load i32, ptr %.omp.sections.lb., align 4, !dbg !1529
  store i32 %7, ptr %.omp.sections.iv., align 4, !dbg !1529
  br label %omp.inner.for.cond, !dbg !1529

omp.inner.for.cond:                               ; preds = %omp.inner.for.inc, %entry
  %8 = load i32, ptr %.omp.sections.iv., align 4, !dbg !1530
  %9 = load i32, ptr %.omp.sections.ub., align 4, !dbg !1530
  %cmp = icmp sle i32 %8, %9, !dbg !1530
  br i1 %cmp, label %omp.inner.for.body, label %omp.inner.for.end, !dbg !1529

omp.inner.for.body:                               ; preds = %omp.inner.for.cond
  %10 = load i32, ptr %.omp.sections.iv., align 4, !dbg !1529
  switch i32 %10, label %.omp.sections.exit [
    i32 0, label %.omp.sections.case
    i32 1, label %.omp.sections.case1
  ], !dbg !1529

.omp.sections.case:                               ; preds = %omp.inner.for.body
  store i32 42, ptr %0, align 4, !dbg !1531
  br label %.omp.sections.exit, !dbg !1533

.omp.sections.case1:                              ; preds = %omp.inner.for.body
  store i32 24, ptr %1, align 4, !dbg !1534
  br label %.omp.sections.exit, !dbg !1536

.omp.sections.exit:                               ; preds = %.omp.sections.case1, %.omp.sections.case, %omp.inner.for.body
  br label %omp.inner.for.inc, !dbg !1536

omp.inner.for.inc:                                ; preds = %.omp.sections.exit
  %11 = load i32, ptr %.omp.sections.iv., align 4, !dbg !1530
  %inc = add nsw i32 %11, 1, !dbg !1530
  store i32 %inc, ptr %.omp.sections.iv., align 4, !dbg !1530
  br label %omp.inner.for.cond, !dbg !1536, !llvm.loop !1537

omp.inner.for.end:                                ; preds = %omp.inner.for.cond
  call void @__kmpc_for_static_fini(ptr @9, i32 %3), !dbg !1538
  ret void, !dbg !1539
}

; Function Attrs: noinline norecurse optnone uwtable
define internal void @main.omp_outlined.1(ptr noalias noundef %.global_tid., ptr noalias noundef %.bound_tid., ptr noundef nonnull align 4 dereferenceable(4) %x, ptr noundef nonnull align 4 dereferenceable(4) %y) #8 !dbg !1540 {
entry:
  %.global_tid..addr = alloca ptr, align 8
  %.bound_tid..addr = alloca ptr, align 8
  %x.addr = alloca ptr, align 8
  %y.addr = alloca ptr, align 8
  store ptr %.global_tid., ptr %.global_tid..addr, align 8
    #dbg_declare(ptr %.global_tid..addr, !1541, !DIExpression(), !1542)
  store ptr %.bound_tid., ptr %.bound_tid..addr, align 8
    #dbg_declare(ptr %.bound_tid..addr, !1543, !DIExpression(), !1542)
  store ptr %x, ptr %x.addr, align 8
    #dbg_declare(ptr %x.addr, !1544, !DIExpression(), !1542)
  store ptr %y, ptr %y.addr, align 8
    #dbg_declare(ptr %y.addr, !1545, !DIExpression(), !1542)
  %0 = load ptr, ptr %x.addr, align 8, !dbg !1546, !nonnull !176, !align !1451
  %1 = load ptr, ptr %y.addr, align 8, !dbg !1546, !nonnull !176, !align !1451
  %2 = load ptr, ptr %.global_tid..addr, align 8, !dbg !1546
  %3 = load ptr, ptr %.bound_tid..addr, align 8, !dbg !1546
  %4 = load ptr, ptr %x.addr, align 8, !dbg !1546
  %5 = load ptr, ptr %y.addr, align 8, !dbg !1546
  call void @main.omp_outlined_debug__.2(ptr %2, ptr %3, ptr %4, ptr %5), !dbg !1546
  ret void, !dbg !1546
}

; Function Attrs: noinline norecurse nounwind optnone uwtable
define internal void @main.omp_outlined_debug__.6(ptr noalias noundef %.global_tid., ptr noalias noundef %.bound_tid., ptr noundef nonnull align 4 dereferenceable(4) %counter) #2 !dbg !1547 {
entry:
  %.global_tid..addr = alloca ptr, align 8
  %.bound_tid..addr = alloca ptr, align 8
  %counter.addr = alloca ptr, align 8
  %.omp.iv = alloca i32, align 4
  %tmp = alloca i32, align 4
  %.omp.lb = alloca i32, align 4
  %.omp.ub = alloca i32, align 4
  %.omp.stride = alloca i32, align 4
  %.omp.is_last = alloca i32, align 4
  %i = alloca i32, align 4
  store ptr %.global_tid., ptr %.global_tid..addr, align 8
    #dbg_declare(ptr %.global_tid..addr, !1550, !DIExpression(), !1551)
  store ptr %.bound_tid., ptr %.bound_tid..addr, align 8
    #dbg_declare(ptr %.bound_tid..addr, !1552, !DIExpression(), !1551)
  store ptr %counter, ptr %counter.addr, align 8
    #dbg_declare(ptr %counter.addr, !1553, !DIExpression(), !1554)
  %0 = load ptr, ptr %counter.addr, align 8, !dbg !1555, !nonnull !176, !align !1451
    #dbg_declare(ptr %.omp.iv, !1556, !DIExpression(), !1551)
    #dbg_declare(ptr %.omp.lb, !1557, !DIExpression(), !1551)
  store i32 0, ptr %.omp.lb, align 4, !dbg !1558
    #dbg_declare(ptr %.omp.ub, !1559, !DIExpression(), !1551)
  store i32 999, ptr %.omp.ub, align 4, !dbg !1558
    #dbg_declare(ptr %.omp.stride, !1560, !DIExpression(), !1551)
  store i32 1, ptr %.omp.stride, align 4, !dbg !1558
    #dbg_declare(ptr %.omp.is_last, !1561, !DIExpression(), !1551)
  store i32 0, ptr %.omp.is_last, align 4, !dbg !1558
    #dbg_declare(ptr %i, !1562, !DIExpression(), !1551)
  %1 = load ptr, ptr %.global_tid..addr, align 8, !dbg !1555
  %2 = load i32, ptr %1, align 4, !dbg !1555
  call void @__kmpc_for_static_init_4(ptr @12, i32 %2, i32 34, ptr %.omp.is_last, ptr %.omp.lb, ptr %.omp.ub, ptr %.omp.stride, i32 1, i32 1), !dbg !1563
  %3 = load i32, ptr %.omp.ub, align 4, !dbg !1558
  %cmp = icmp sgt i32 %3, 999, !dbg !1558
  br i1 %cmp, label %cond.true, label %cond.false, !dbg !1558

cond.true:                                        ; preds = %entry
  br label %cond.end, !dbg !1558

cond.false:                                       ; preds = %entry
  %4 = load i32, ptr %.omp.ub, align 4, !dbg !1558
  br label %cond.end, !dbg !1558

cond.end:                                         ; preds = %cond.false, %cond.true
  %cond = phi i32 [ 999, %cond.true ], [ %4, %cond.false ], !dbg !1558
  store i32 %cond, ptr %.omp.ub, align 4, !dbg !1558
  %5 = load i32, ptr %.omp.lb, align 4, !dbg !1558
  store i32 %5, ptr %.omp.iv, align 4, !dbg !1558
  br label %omp.inner.for.cond, !dbg !1555

omp.inner.for.cond:                               ; preds = %omp.inner.for.inc, %cond.end
  %6 = load i32, ptr %.omp.iv, align 4, !dbg !1558
  %7 = load i32, ptr %.omp.ub, align 4, !dbg !1558
  %cmp1 = icmp sle i32 %6, %7, !dbg !1555
  br i1 %cmp1, label %omp.inner.for.body, label %omp.inner.for.end, !dbg !1555

omp.inner.for.body:                               ; preds = %omp.inner.for.cond
  %8 = load i32, ptr %.omp.iv, align 4, !dbg !1558
  %mul = mul nsw i32 %8, 1, !dbg !1564
  %add = add nsw i32 0, %mul, !dbg !1564
  store i32 %add, ptr %i, align 4, !dbg !1564
  call void @__kmpc_critical(ptr @14, i32 %2, ptr @.gomp_critical_user_.var), !dbg !1565
  %9 = load i32, ptr %0, align 4, !dbg !1568
  %add2 = add nsw i32 %9, 1, !dbg !1568
  store i32 %add2, ptr %0, align 4, !dbg !1568
  call void @__kmpc_end_critical(ptr @14, i32 %2, ptr @.gomp_critical_user_.var), !dbg !1569
  br label %omp.body.continue, !dbg !1570

omp.body.continue:                                ; preds = %omp.inner.for.body
  br label %omp.inner.for.inc, !dbg !1563

omp.inner.for.inc:                                ; preds = %omp.body.continue
  %10 = load i32, ptr %.omp.iv, align 4, !dbg !1558
  %add3 = add nsw i32 %10, 1, !dbg !1555
  store i32 %add3, ptr %.omp.iv, align 4, !dbg !1555
  br label %omp.inner.for.cond, !dbg !1563, !llvm.loop !1571

omp.inner.for.end:                                ; preds = %omp.inner.for.cond
  br label %omp.loop.exit, !dbg !1563

omp.loop.exit:                                    ; preds = %omp.inner.for.end
  call void @__kmpc_for_static_fini(ptr @16, i32 %2), !dbg !1572
  ret void, !dbg !1573
}

; Function Attrs: noinline norecurse nounwind optnone uwtable
define internal void @main.omp_outlined.5(ptr noalias noundef %.global_tid., ptr noalias noundef %.bound_tid., ptr noundef nonnull align 4 dereferenceable(4) %counter) #2 !dbg !1574 {
entry:
  %.global_tid..addr = alloca ptr, align 8
  %.bound_tid..addr = alloca ptr, align 8
  %counter.addr = alloca ptr, align 8
  store ptr %.global_tid., ptr %.global_tid..addr, align 8
    #dbg_declare(ptr %.global_tid..addr, !1575, !DIExpression(), !1576)
  store ptr %.bound_tid., ptr %.bound_tid..addr, align 8
    #dbg_declare(ptr %.bound_tid..addr, !1577, !DIExpression(), !1576)
  store ptr %counter, ptr %counter.addr, align 8
    #dbg_declare(ptr %counter.addr, !1578, !DIExpression(), !1576)
  %0 = load ptr, ptr %counter.addr, align 8, !dbg !1579, !nonnull !176, !align !1451
  %1 = load ptr, ptr %.global_tid..addr, align 8, !dbg !1579
  %2 = load ptr, ptr %.bound_tid..addr, align 8, !dbg !1579
  %3 = load ptr, ptr %counter.addr, align 8, !dbg !1579
  call void @main.omp_outlined_debug__.6(ptr %1, ptr %2, ptr %3) #3, !dbg !1579
  ret void, !dbg !1579
}

; Function Attrs: convergent nounwind
declare void @__kmpc_critical(ptr, i32, ptr) #6

; Function Attrs: convergent nounwind
declare void @__kmpc_end_critical(ptr, i32, ptr) #6

; Function Attrs: noinline norecurse nounwind optnone uwtable
define internal void @main.omp_outlined_debug__.9(ptr noalias noundef %.global_tid., ptr noalias noundef %.bound_tid., ptr noundef nonnull align 4 dereferenceable(4) %atomic_counter) #2 !dbg !1580 {
entry:
  %.global_tid..addr = alloca ptr, align 8
  %.bound_tid..addr = alloca ptr, align 8
  %atomic_counter.addr = alloca ptr, align 8
  %.omp.iv = alloca i32, align 4
  %tmp = alloca i32, align 4
  %.omp.lb = alloca i32, align 4
  %.omp.ub = alloca i32, align 4
  %.omp.stride = alloca i32, align 4
  %.omp.is_last = alloca i32, align 4
  %i = alloca i32, align 4
  store ptr %.global_tid., ptr %.global_tid..addr, align 8
    #dbg_declare(ptr %.global_tid..addr, !1581, !DIExpression(), !1582)
  store ptr %.bound_tid., ptr %.bound_tid..addr, align 8
    #dbg_declare(ptr %.bound_tid..addr, !1583, !DIExpression(), !1582)
  store ptr %atomic_counter, ptr %atomic_counter.addr, align 8
    #dbg_declare(ptr %atomic_counter.addr, !1584, !DIExpression(), !1585)
  %0 = load ptr, ptr %atomic_counter.addr, align 8, !dbg !1586, !nonnull !176, !align !1451
    #dbg_declare(ptr %.omp.iv, !1587, !DIExpression(), !1582)
    #dbg_declare(ptr %.omp.lb, !1588, !DIExpression(), !1582)
  store i32 0, ptr %.omp.lb, align 4, !dbg !1589
    #dbg_declare(ptr %.omp.ub, !1590, !DIExpression(), !1582)
  store i32 999, ptr %.omp.ub, align 4, !dbg !1589
    #dbg_declare(ptr %.omp.stride, !1591, !DIExpression(), !1582)
  store i32 1, ptr %.omp.stride, align 4, !dbg !1589
    #dbg_declare(ptr %.omp.is_last, !1592, !DIExpression(), !1582)
  store i32 0, ptr %.omp.is_last, align 4, !dbg !1589
    #dbg_declare(ptr %i, !1593, !DIExpression(), !1582)
  %1 = load ptr, ptr %.global_tid..addr, align 8, !dbg !1586
  %2 = load i32, ptr %1, align 4, !dbg !1586
  call void @__kmpc_for_static_init_4(ptr @19, i32 %2, i32 34, ptr %.omp.is_last, ptr %.omp.lb, ptr %.omp.ub, ptr %.omp.stride, i32 1, i32 1), !dbg !1594
  %3 = load i32, ptr %.omp.ub, align 4, !dbg !1589
  %cmp = icmp sgt i32 %3, 999, !dbg !1589
  br i1 %cmp, label %cond.true, label %cond.false, !dbg !1589

cond.true:                                        ; preds = %entry
  br label %cond.end, !dbg !1589

cond.false:                                       ; preds = %entry
  %4 = load i32, ptr %.omp.ub, align 4, !dbg !1589
  br label %cond.end, !dbg !1589

cond.end:                                         ; preds = %cond.false, %cond.true
  %cond = phi i32 [ 999, %cond.true ], [ %4, %cond.false ], !dbg !1589
  store i32 %cond, ptr %.omp.ub, align 4, !dbg !1589
  %5 = load i32, ptr %.omp.lb, align 4, !dbg !1589
  store i32 %5, ptr %.omp.iv, align 4, !dbg !1589
  br label %omp.inner.for.cond, !dbg !1586

omp.inner.for.cond:                               ; preds = %omp.inner.for.inc, %cond.end
  %6 = load i32, ptr %.omp.iv, align 4, !dbg !1589
  %7 = load i32, ptr %.omp.ub, align 4, !dbg !1589
  %cmp1 = icmp sle i32 %6, %7, !dbg !1586
  br i1 %cmp1, label %omp.inner.for.body, label %omp.inner.for.end, !dbg !1586

omp.inner.for.body:                               ; preds = %omp.inner.for.cond
  %8 = load i32, ptr %.omp.iv, align 4, !dbg !1589
  %mul = mul nsw i32 %8, 1, !dbg !1595
  %add = add nsw i32 0, %mul, !dbg !1595
  store i32 %add, ptr %i, align 4, !dbg !1595
  %9 = atomicrmw add ptr %0, i32 1 monotonic, align 4, !dbg !1596
  br label %omp.body.continue, !dbg !1599

omp.body.continue:                                ; preds = %omp.inner.for.body
  br label %omp.inner.for.inc, !dbg !1594

omp.inner.for.inc:                                ; preds = %omp.body.continue
  %10 = load i32, ptr %.omp.iv, align 4, !dbg !1589
  %add2 = add nsw i32 %10, 1, !dbg !1586
  store i32 %add2, ptr %.omp.iv, align 4, !dbg !1586
  br label %omp.inner.for.cond, !dbg !1594, !llvm.loop !1600

omp.inner.for.end:                                ; preds = %omp.inner.for.cond
  br label %omp.loop.exit, !dbg !1594

omp.loop.exit:                                    ; preds = %omp.inner.for.end
  call void @__kmpc_for_static_fini(ptr @21, i32 %2), !dbg !1601
  ret void, !dbg !1602
}

; Function Attrs: noinline norecurse nounwind optnone uwtable
define internal void @main.omp_outlined.8(ptr noalias noundef %.global_tid., ptr noalias noundef %.bound_tid., ptr noundef nonnull align 4 dereferenceable(4) %atomic_counter) #2 !dbg !1603 {
entry:
  %.global_tid..addr = alloca ptr, align 8
  %.bound_tid..addr = alloca ptr, align 8
  %atomic_counter.addr = alloca ptr, align 8
  store ptr %.global_tid., ptr %.global_tid..addr, align 8
    #dbg_declare(ptr %.global_tid..addr, !1604, !DIExpression(), !1605)
  store ptr %.bound_tid., ptr %.bound_tid..addr, align 8
    #dbg_declare(ptr %.bound_tid..addr, !1606, !DIExpression(), !1605)
  store ptr %atomic_counter, ptr %atomic_counter.addr, align 8
    #dbg_declare(ptr %atomic_counter.addr, !1607, !DIExpression(), !1605)
  %0 = load ptr, ptr %atomic_counter.addr, align 8, !dbg !1608, !nonnull !176, !align !1451
  %1 = load ptr, ptr %.global_tid..addr, align 8, !dbg !1608
  %2 = load ptr, ptr %.bound_tid..addr, align 8, !dbg !1608
  %3 = load ptr, ptr %atomic_counter.addr, align 8, !dbg !1608
  call void @main.omp_outlined_debug__.9(ptr %1, ptr %2, ptr %3) #3, !dbg !1608
  ret void, !dbg !1608
}

; Function Attrs: mustprogress noinline nounwind optnone uwtable
define linkonce_odr dso_local void @_ZNSt6vectorIiSaIiEED2Ev(ptr noundef nonnull align 8 dereferenceable(24) %this) unnamed_addr #4 comdat align 2 personality ptr @__gxx_personality_v0 !dbg !1609 {
entry:
  %__first.addr.i = alloca ptr, align 8
  %__last.addr.i = alloca ptr, align 8
  %.addr.i = alloca ptr, align 8
  %this.addr = alloca ptr, align 8
  store ptr %this, ptr %this.addr, align 8
    #dbg_declare(ptr %this.addr, !1610, !DIExpression(), !1611)
  %this1 = load ptr, ptr %this.addr, align 8
  %_M_impl = getelementptr inbounds nuw %"struct.std::_Vector_base", ptr %this1, i32 0, i32 0, !dbg !1612
  %_M_start = getelementptr inbounds nuw %"struct.std::_Vector_base<int, std::allocator<int>>::_Vector_impl_data", ptr %_M_impl, i32 0, i32 0, !dbg !1614
  %0 = load ptr, ptr %_M_start, align 8, !dbg !1614
  %_M_impl2 = getelementptr inbounds nuw %"struct.std::_Vector_base", ptr %this1, i32 0, i32 0, !dbg !1615
  %_M_finish = getelementptr inbounds nuw %"struct.std::_Vector_base<int, std::allocator<int>>::_Vector_impl_data", ptr %_M_impl2, i32 0, i32 1, !dbg !1616
  %1 = load ptr, ptr %_M_finish, align 8, !dbg !1616
  %call = call noundef nonnull align 1 dereferenceable(1) ptr @_ZNSt12_Vector_baseIiSaIiEE19_M_get_Tp_allocatorEv(ptr noundef nonnull align 8 dereferenceable(24) %this1) #3, !dbg !1617
  store ptr %0, ptr %__first.addr.i, align 8
    #dbg_declare(ptr %__first.addr.i, !1618, !DIExpression(), !1624)
  store ptr %1, ptr %__last.addr.i, align 8
    #dbg_declare(ptr %__last.addr.i, !1626, !DIExpression(), !1627)
  store ptr %call, ptr %.addr.i, align 8
    #dbg_declare(ptr %.addr.i, !1628, !DIExpression(), !1629)
  %2 = load ptr, ptr %__first.addr.i, align 8, !dbg !1630
  %3 = load ptr, ptr %__last.addr.i, align 8, !dbg !1631
  invoke void @_ZSt8_DestroyIPiEvT_S1_(ptr noundef %2, ptr noundef %3)
          to label %_ZSt8_DestroyIPiiEvT_S1_RSaIT0_E.exit unwind label %terminate.lpad, !dbg !1632

_ZSt8_DestroyIPiiEvT_S1_RSaIT0_E.exit:            ; preds = %entry
  br label %invoke.cont, !dbg !1633

invoke.cont:                                      ; preds = %_ZSt8_DestroyIPiiEvT_S1_RSaIT0_E.exit
  call void @_ZNSt12_Vector_baseIiSaIiEED2Ev(ptr noundef nonnull align 8 dereferenceable(24) %this1) #3, !dbg !1634
  ret void, !dbg !1635

terminate.lpad:                                   ; preds = %entry
  %4 = landingpad { ptr, i32 }
          catch ptr null, !dbg !1636
  %5 = extractvalue { ptr, i32 } %4, 0, !dbg !1636
  call void @__clang_call_terminate(ptr %5) #13, !dbg !1636
  unreachable, !dbg !1636
}

; Function Attrs: mustprogress noinline optnone uwtable
define linkonce_odr dso_local noundef i64 @_ZNSt6vectorIiSaIiEE17_S_check_init_lenEmRKS0_(i64 noundef %__n, ptr noundef nonnull align 1 dereferenceable(1) %__a) #1 comdat align 2 !dbg !1637 {
entry:
  %this.addr.i3 = alloca ptr, align 8
  %.addr.i = alloca ptr, align 8
  %this.addr.i1 = alloca ptr, align 8
  %__a.addr.i = alloca ptr, align 8
  %this.addr.i = alloca ptr, align 8
  %__n.addr = alloca i64, align 8
  %__a.addr = alloca ptr, align 8
  %ref.tmp = alloca %"class.std::allocator", align 1
  store i64 %__n, ptr %__n.addr, align 8
    #dbg_declare(ptr %__n.addr, !1638, !DIExpression(), !1639)
  store ptr %__a, ptr %__a.addr, align 8
    #dbg_declare(ptr %__a.addr, !1640, !DIExpression(), !1641)
  %0 = load i64, ptr %__n.addr, align 8, !dbg !1642
  %1 = load ptr, ptr %__a.addr, align 8, !dbg !1644, !nonnull !176
  store ptr %ref.tmp, ptr %this.addr.i1, align 8
    #dbg_declare(ptr %this.addr.i1, !1645, !DIExpression(), !1647)
  store ptr %1, ptr %__a.addr.i, align 8
    #dbg_declare(ptr %__a.addr.i, !1649, !DIExpression(), !1650)
  %this1.i2 = load ptr, ptr %this.addr.i1, align 8
  %2 = load ptr, ptr %__a.addr.i, align 8, !dbg !1651, !nonnull !176
  store ptr %this1.i2, ptr %this.addr.i3, align 8
    #dbg_declare(ptr %this.addr.i3, !1652, !DIExpression(), !1654)
  store ptr %2, ptr %.addr.i, align 8
    #dbg_declare(ptr %.addr.i, !1656, !DIExpression(), !1657)
  %this1.i4 = load ptr, ptr %this.addr.i3, align 8
  %call = call noundef i64 @_ZNSt6vectorIiSaIiEE11_S_max_sizeERKS0_(ptr noundef nonnull align 1 dereferenceable(1) %ref.tmp) #3, !dbg !1658
  %cmp = icmp ugt i64 %0, %call, !dbg !1659
  store ptr %ref.tmp, ptr %this.addr.i, align 8
    #dbg_declare(ptr %this.addr.i, !1366, !DIExpression(), !1660)
  %this1.i = load ptr, ptr %this.addr.i, align 8
  call void @_ZNSt15__new_allocatorIiED2Ev(ptr noundef nonnull align 1 dereferenceable(1) %this1.i) #3, !dbg !1662
  br i1 %cmp, label %if.then, label %if.end, !dbg !1642

if.then:                                          ; preds = %entry
  call void @_ZSt20__throw_length_errorPKc(ptr noundef @.str.12) #14, !dbg !1663
  unreachable, !dbg !1663

if.end:                                           ; preds = %entry
  %3 = load i64, ptr %__n.addr, align 8, !dbg !1664
  ret i64 %3, !dbg !1665
}

; Function Attrs: mustprogress noinline optnone uwtable
define linkonce_odr dso_local void @_ZNSt12_Vector_baseIiSaIiEEC2EmRKS0_(ptr noundef nonnull align 8 dereferenceable(24) %this, i64 noundef %__n, ptr noundef nonnull align 1 dereferenceable(1) %__a) unnamed_addr #1 comdat align 2 personality ptr @__gxx_personality_v0 !dbg !1666 {
entry:
  %this.addr = alloca ptr, align 8
  %__n.addr = alloca i64, align 8
  %__a.addr = alloca ptr, align 8
  %exn.slot = alloca ptr, align 8
  %ehselector.slot = alloca i32, align 4
  store ptr %this, ptr %this.addr, align 8
    #dbg_declare(ptr %this.addr, !1667, !DIExpression(), !1669)
  store i64 %__n, ptr %__n.addr, align 8
    #dbg_declare(ptr %__n.addr, !1670, !DIExpression(), !1671)
  store ptr %__a, ptr %__a.addr, align 8
    #dbg_declare(ptr %__a.addr, !1672, !DIExpression(), !1673)
  %this1 = load ptr, ptr %this.addr, align 8
  %_M_impl = getelementptr inbounds nuw %"struct.std::_Vector_base", ptr %this1, i32 0, i32 0, !dbg !1674
  %0 = load ptr, ptr %__a.addr, align 8, !dbg !1675, !nonnull !176
  call void @_ZNSt12_Vector_baseIiSaIiEE12_Vector_implC2ERKS0_(ptr noundef nonnull align 8 dereferenceable(24) %_M_impl, ptr noundef nonnull align 1 dereferenceable(1) %0) #3, !dbg !1674
  %1 = load i64, ptr %__n.addr, align 8, !dbg !1676
  invoke void @_ZNSt12_Vector_baseIiSaIiEE17_M_create_storageEm(ptr noundef nonnull align 8 dereferenceable(24) %this1, i64 noundef %1)
          to label %invoke.cont unwind label %lpad, !dbg !1678

invoke.cont:                                      ; preds = %entry
  ret void, !dbg !1679

lpad:                                             ; preds = %entry
  %2 = landingpad { ptr, i32 }
          cleanup, !dbg !1680
  %3 = extractvalue { ptr, i32 } %2, 0, !dbg !1680
  store ptr %3, ptr %exn.slot, align 8, !dbg !1680
  %4 = extractvalue { ptr, i32 } %2, 1, !dbg !1680
  store i32 %4, ptr %ehselector.slot, align 4, !dbg !1680
  call void @_ZNSt12_Vector_baseIiSaIiEE12_Vector_implD2Ev(ptr noundef nonnull align 8 dereferenceable(24) %_M_impl) #3, !dbg !1680
  br label %eh.resume, !dbg !1680

eh.resume:                                        ; preds = %lpad
  %exn = load ptr, ptr %exn.slot, align 8, !dbg !1680
  %sel = load i32, ptr %ehselector.slot, align 4, !dbg !1680
  %lpad.val = insertvalue { ptr, i32 } poison, ptr %exn, 0, !dbg !1680
  %lpad.val2 = insertvalue { ptr, i32 } %lpad.val, i32 %sel, 1, !dbg !1680
  resume { ptr, i32 } %lpad.val2, !dbg !1680
}

; Function Attrs: mustprogress noinline optnone uwtable
define linkonce_odr dso_local void @_ZNSt6vectorIiSaIiEE18_M_fill_initializeEmRKi(ptr noundef nonnull align 8 dereferenceable(24) %this, i64 noundef %__n, ptr noundef nonnull align 4 dereferenceable(4) %__value) #1 comdat align 2 !dbg !1681 {
entry:
  %this.addr = alloca ptr, align 8
  %__n.addr = alloca i64, align 8
  %__value.addr = alloca ptr, align 8
  store ptr %this, ptr %this.addr, align 8
    #dbg_declare(ptr %this.addr, !1682, !DIExpression(), !1683)
  store i64 %__n, ptr %__n.addr, align 8
    #dbg_declare(ptr %__n.addr, !1684, !DIExpression(), !1685)
  store ptr %__value, ptr %__value.addr, align 8
    #dbg_declare(ptr %__value.addr, !1686, !DIExpression(), !1687)
  %this1 = load ptr, ptr %this.addr, align 8
  %_M_impl = getelementptr inbounds nuw %"struct.std::_Vector_base", ptr %this1, i32 0, i32 0, !dbg !1688
  %_M_start = getelementptr inbounds nuw %"struct.std::_Vector_base<int, std::allocator<int>>::_Vector_impl_data", ptr %_M_impl, i32 0, i32 0, !dbg !1689
  %0 = load ptr, ptr %_M_start, align 8, !dbg !1689
  %1 = load i64, ptr %__n.addr, align 8, !dbg !1690
  %2 = load ptr, ptr %__value.addr, align 8, !dbg !1691, !nonnull !176, !align !1451
  %call = call noundef nonnull align 1 dereferenceable(1) ptr @_ZNSt12_Vector_baseIiSaIiEE19_M_get_Tp_allocatorEv(ptr noundef nonnull align 8 dereferenceable(24) %this1) #3, !dbg !1692
  %call2 = call noundef ptr @_ZSt24__uninitialized_fill_n_aIPimiiET_S1_T0_RKT1_RSaIT2_E(ptr noundef %0, i64 noundef %1, ptr noundef nonnull align 4 dereferenceable(4) %2, ptr noundef nonnull align 1 dereferenceable(1) %call), !dbg !1693
  %_M_impl3 = getelementptr inbounds nuw %"struct.std::_Vector_base", ptr %this1, i32 0, i32 0, !dbg !1694
  %_M_finish = getelementptr inbounds nuw %"struct.std::_Vector_base<int, std::allocator<int>>::_Vector_impl_data", ptr %_M_impl3, i32 0, i32 1, !dbg !1695
  store ptr %call2, ptr %_M_finish, align 8, !dbg !1696
  ret void, !dbg !1697
}

; Function Attrs: mustprogress noinline nounwind optnone uwtable
define linkonce_odr dso_local void @_ZNSt12_Vector_baseIiSaIiEED2Ev(ptr noundef nonnull align 8 dereferenceable(24) %this) unnamed_addr #4 comdat align 2 personality ptr @__gxx_personality_v0 !dbg !1698 {
entry:
  %this.addr = alloca ptr, align 8
  store ptr %this, ptr %this.addr, align 8
    #dbg_declare(ptr %this.addr, !1699, !DIExpression(), !1700)
  %this1 = load ptr, ptr %this.addr, align 8
  %_M_impl = getelementptr inbounds nuw %"struct.std::_Vector_base", ptr %this1, i32 0, i32 0, !dbg !1701
  %_M_start = getelementptr inbounds nuw %"struct.std::_Vector_base<int, std::allocator<int>>::_Vector_impl_data", ptr %_M_impl, i32 0, i32 0, !dbg !1703
  %0 = load ptr, ptr %_M_start, align 8, !dbg !1703
  %_M_impl2 = getelementptr inbounds nuw %"struct.std::_Vector_base", ptr %this1, i32 0, i32 0, !dbg !1704
  %_M_end_of_storage = getelementptr inbounds nuw %"struct.std::_Vector_base<int, std::allocator<int>>::_Vector_impl_data", ptr %_M_impl2, i32 0, i32 2, !dbg !1705
  %1 = load ptr, ptr %_M_end_of_storage, align 8, !dbg !1705
  %_M_impl3 = getelementptr inbounds nuw %"struct.std::_Vector_base", ptr %this1, i32 0, i32 0, !dbg !1706
  %_M_start4 = getelementptr inbounds nuw %"struct.std::_Vector_base<int, std::allocator<int>>::_Vector_impl_data", ptr %_M_impl3, i32 0, i32 0, !dbg !1707
  %2 = load ptr, ptr %_M_start4, align 8, !dbg !1707
  %sub.ptr.lhs.cast = ptrtoint ptr %1 to i64, !dbg !1708
  %sub.ptr.rhs.cast = ptrtoint ptr %2 to i64, !dbg !1708
  %sub.ptr.sub = sub i64 %sub.ptr.lhs.cast, %sub.ptr.rhs.cast, !dbg !1708
  %sub.ptr.div = sdiv exact i64 %sub.ptr.sub, 4, !dbg !1708
  invoke void @_ZNSt12_Vector_baseIiSaIiEE13_M_deallocateEPim(ptr noundef nonnull align 8 dereferenceable(24) %this1, ptr noundef %0, i64 noundef %sub.ptr.div)
          to label %invoke.cont unwind label %terminate.lpad, !dbg !1709

invoke.cont:                                      ; preds = %entry
  %_M_impl5 = getelementptr inbounds nuw %"struct.std::_Vector_base", ptr %this1, i32 0, i32 0, !dbg !1710
  call void @_ZNSt12_Vector_baseIiSaIiEE12_Vector_implD2Ev(ptr noundef nonnull align 8 dereferenceable(24) %_M_impl5) #3, !dbg !1710
  ret void, !dbg !1711

terminate.lpad:                                   ; preds = %entry
  %3 = landingpad { ptr, i32 }
          catch ptr null, !dbg !1709
  %4 = extractvalue { ptr, i32 } %3, 0, !dbg !1709
  call void @__clang_call_terminate(ptr %4) #13, !dbg !1709
  unreachable, !dbg !1709
}

; Function Attrs: mustprogress noinline nounwind optnone uwtable
define linkonce_odr dso_local noundef i64 @_ZNSt6vectorIiSaIiEE11_S_max_sizeERKS0_(ptr noundef nonnull align 1 dereferenceable(1) %__a) #4 comdat align 2 personality ptr @__gxx_personality_v0 !dbg !1712 {
entry:
  %this.addr.i3 = alloca ptr, align 8
  %this.addr.i = alloca ptr, align 8
  %__a.addr.i = alloca ptr, align 8
  %__a.addr = alloca ptr, align 8
  %__diffmax = alloca i64, align 8
  %__allocmax = alloca i64, align 8
  store ptr %__a, ptr %__a.addr, align 8
    #dbg_declare(ptr %__a.addr, !1713, !DIExpression(), !1714)
    #dbg_declare(ptr %__diffmax, !1715, !DIExpression(), !1717)
  store i64 2305843009213693951, ptr %__diffmax, align 8, !dbg !1717
    #dbg_declare(ptr %__allocmax, !1718, !DIExpression(), !1719)
  %0 = load ptr, ptr %__a.addr, align 8, !dbg !1720, !nonnull !176
  store ptr %0, ptr %__a.addr.i, align 8
    #dbg_declare(ptr %__a.addr.i, !1721, !DIExpression(), !1723)
  %1 = load ptr, ptr %__a.addr.i, align 8, !dbg !1725, !nonnull !176
  store ptr %1, ptr %this.addr.i, align 8
    #dbg_declare(ptr %this.addr.i, !1726, !DIExpression(), !1729)
  %this1.i = load ptr, ptr %this.addr.i, align 8
  store ptr %this1.i, ptr %this.addr.i3, align 8
    #dbg_declare(ptr %this.addr.i3, !1731, !DIExpression(), !1733)
  %this1.i4 = load ptr, ptr %this.addr.i3, align 8
  store i64 2305843009213693951, ptr %__allocmax, align 8, !dbg !1719
  %call1 = invoke noundef nonnull align 8 dereferenceable(8) ptr @_ZSt3minImERKT_S2_S2_(ptr noundef nonnull align 8 dereferenceable(8) %__diffmax, ptr noundef nonnull align 8 dereferenceable(8) %__allocmax)
          to label %invoke.cont unwind label %terminate.lpad, !dbg !1735

invoke.cont:                                      ; preds = %entry
  %2 = load i64, ptr %call1, align 8, !dbg !1735
  ret i64 %2, !dbg !1736

terminate.lpad:                                   ; preds = %entry
  %3 = landingpad { ptr, i32 }
          catch ptr null, !dbg !1735
  %4 = extractvalue { ptr, i32 } %3, 0, !dbg !1735
  call void @__clang_call_terminate(ptr %4) #13, !dbg !1735
  unreachable, !dbg !1735
}

; Function Attrs: noreturn
declare void @_ZSt20__throw_length_errorPKc(ptr noundef) #9

; Function Attrs: mustprogress noinline nounwind optnone uwtable
define linkonce_odr dso_local noundef nonnull align 8 dereferenceable(8) ptr @_ZSt3minImERKT_S2_S2_(ptr noundef nonnull align 8 dereferenceable(8) %__a, ptr noundef nonnull align 8 dereferenceable(8) %__b) #4 comdat !dbg !1737 {
entry:
  %retval = alloca ptr, align 8
  %__a.addr = alloca ptr, align 8
  %__b.addr = alloca ptr, align 8
  store ptr %__a, ptr %__a.addr, align 8
    #dbg_declare(ptr %__a.addr, !1745, !DIExpression(), !1746)
  store ptr %__b, ptr %__b.addr, align 8
    #dbg_declare(ptr %__b.addr, !1747, !DIExpression(), !1748)
  %0 = load ptr, ptr %__b.addr, align 8, !dbg !1749, !nonnull !176, !align !1470
  %1 = load i64, ptr %0, align 8, !dbg !1749
  %2 = load ptr, ptr %__a.addr, align 8, !dbg !1751, !nonnull !176, !align !1470
  %3 = load i64, ptr %2, align 8, !dbg !1751
  %cmp = icmp ult i64 %1, %3, !dbg !1752
  br i1 %cmp, label %if.then, label %if.end, !dbg !1752

if.then:                                          ; preds = %entry
  %4 = load ptr, ptr %__b.addr, align 8, !dbg !1753, !nonnull !176, !align !1470
  store ptr %4, ptr %retval, align 8, !dbg !1754
  br label %return, !dbg !1754

if.end:                                           ; preds = %entry
  %5 = load ptr, ptr %__a.addr, align 8, !dbg !1755, !nonnull !176, !align !1470
  store ptr %5, ptr %retval, align 8, !dbg !1756
  br label %return, !dbg !1756

return:                                           ; preds = %if.end, %if.then
  %6 = load ptr, ptr %retval, align 8, !dbg !1757
  ret ptr %6, !dbg !1757
}

; Function Attrs: noinline noreturn nounwind uwtable
define linkonce_odr hidden void @__clang_call_terminate(ptr noundef %0) #10 comdat {
  %2 = call ptr @__cxa_begin_catch(ptr %0) #3
  call void @_ZSt9terminatev() #13
  unreachable
}

declare ptr @__cxa_begin_catch(ptr)

declare void @_ZSt9terminatev()

; Function Attrs: mustprogress noinline nounwind optnone uwtable
define linkonce_odr dso_local void @_ZNSt12_Vector_baseIiSaIiEE12_Vector_implC2ERKS0_(ptr noundef nonnull align 8 dereferenceable(24) %this, ptr noundef nonnull align 1 dereferenceable(1) %__a) unnamed_addr #4 comdat align 2 !dbg !1758 {
entry:
  %this.addr.i2 = alloca ptr, align 8
  %.addr.i = alloca ptr, align 8
  %this.addr.i = alloca ptr, align 8
  %__a.addr.i = alloca ptr, align 8
  %this.addr = alloca ptr, align 8
  %__a.addr = alloca ptr, align 8
  store ptr %this, ptr %this.addr, align 8
    #dbg_declare(ptr %this.addr, !1759, !DIExpression(), !1761)
  store ptr %__a, ptr %__a.addr, align 8
    #dbg_declare(ptr %__a.addr, !1762, !DIExpression(), !1763)
  %this1 = load ptr, ptr %this.addr, align 8
  %0 = load ptr, ptr %__a.addr, align 8, !dbg !1764, !nonnull !176
  store ptr %this1, ptr %this.addr.i, align 8
    #dbg_declare(ptr %this.addr.i, !1645, !DIExpression(), !1765)
  store ptr %0, ptr %__a.addr.i, align 8
    #dbg_declare(ptr %__a.addr.i, !1649, !DIExpression(), !1767)
  %this1.i = load ptr, ptr %this.addr.i, align 8
  %1 = load ptr, ptr %__a.addr.i, align 8, !dbg !1768, !nonnull !176
  store ptr %this1.i, ptr %this.addr.i2, align 8
    #dbg_declare(ptr %this.addr.i2, !1652, !DIExpression(), !1769)
  store ptr %1, ptr %.addr.i, align 8
    #dbg_declare(ptr %.addr.i, !1656, !DIExpression(), !1771)
  %this1.i3 = load ptr, ptr %this.addr.i2, align 8
  call void @_ZNSt12_Vector_baseIiSaIiEE17_Vector_impl_dataC2Ev(ptr noundef nonnull align 8 dereferenceable(24) %this1) #3, !dbg !1772
  ret void, !dbg !1773
}

; Function Attrs: mustprogress noinline optnone uwtable
define linkonce_odr dso_local void @_ZNSt12_Vector_baseIiSaIiEE17_M_create_storageEm(ptr noundef nonnull align 8 dereferenceable(24) %this, i64 noundef %__n) #1 comdat align 2 !dbg !1774 {
entry:
  %this.addr = alloca ptr, align 8
  %__n.addr = alloca i64, align 8
  store ptr %this, ptr %this.addr, align 8
    #dbg_declare(ptr %this.addr, !1775, !DIExpression(), !1776)
  store i64 %__n, ptr %__n.addr, align 8
    #dbg_declare(ptr %__n.addr, !1777, !DIExpression(), !1778)
  %this1 = load ptr, ptr %this.addr, align 8
  %0 = load i64, ptr %__n.addr, align 8, !dbg !1779
  %call = call noundef ptr @_ZNSt12_Vector_baseIiSaIiEE11_M_allocateEm(ptr noundef nonnull align 8 dereferenceable(24) %this1, i64 noundef %0), !dbg !1780
  %_M_impl = getelementptr inbounds nuw %"struct.std::_Vector_base", ptr %this1, i32 0, i32 0, !dbg !1781
  %_M_start = getelementptr inbounds nuw %"struct.std::_Vector_base<int, std::allocator<int>>::_Vector_impl_data", ptr %_M_impl, i32 0, i32 0, !dbg !1782
  store ptr %call, ptr %_M_start, align 8, !dbg !1783
  %_M_impl2 = getelementptr inbounds nuw %"struct.std::_Vector_base", ptr %this1, i32 0, i32 0, !dbg !1784
  %_M_start3 = getelementptr inbounds nuw %"struct.std::_Vector_base<int, std::allocator<int>>::_Vector_impl_data", ptr %_M_impl2, i32 0, i32 0, !dbg !1785
  %1 = load ptr, ptr %_M_start3, align 8, !dbg !1785
  %_M_impl4 = getelementptr inbounds nuw %"struct.std::_Vector_base", ptr %this1, i32 0, i32 0, !dbg !1786
  %_M_finish = getelementptr inbounds nuw %"struct.std::_Vector_base<int, std::allocator<int>>::_Vector_impl_data", ptr %_M_impl4, i32 0, i32 1, !dbg !1787
  store ptr %1, ptr %_M_finish, align 8, !dbg !1788
  %_M_impl5 = getelementptr inbounds nuw %"struct.std::_Vector_base", ptr %this1, i32 0, i32 0, !dbg !1789
  %_M_start6 = getelementptr inbounds nuw %"struct.std::_Vector_base<int, std::allocator<int>>::_Vector_impl_data", ptr %_M_impl5, i32 0, i32 0, !dbg !1790
  %2 = load ptr, ptr %_M_start6, align 8, !dbg !1790
  %3 = load i64, ptr %__n.addr, align 8, !dbg !1791
  %add.ptr = getelementptr inbounds nuw i32, ptr %2, i64 %3, !dbg !1792
  %_M_impl7 = getelementptr inbounds nuw %"struct.std::_Vector_base", ptr %this1, i32 0, i32 0, !dbg !1793
  %_M_end_of_storage = getelementptr inbounds nuw %"struct.std::_Vector_base<int, std::allocator<int>>::_Vector_impl_data", ptr %_M_impl7, i32 0, i32 2, !dbg !1794
  store ptr %add.ptr, ptr %_M_end_of_storage, align 8, !dbg !1795
  ret void, !dbg !1796
}

; Function Attrs: mustprogress noinline nounwind optnone uwtable
define linkonce_odr dso_local void @_ZNSt12_Vector_baseIiSaIiEE12_Vector_implD2Ev(ptr noundef nonnull align 8 dereferenceable(24) %this) unnamed_addr #4 comdat align 2 !dbg !1797 {
entry:
  %this.addr.i = alloca ptr, align 8
  %this.addr = alloca ptr, align 8
  store ptr %this, ptr %this.addr, align 8
    #dbg_declare(ptr %this.addr, !1799, !DIExpression(), !1800)
  %this1 = load ptr, ptr %this.addr, align 8
  store ptr %this1, ptr %this.addr.i, align 8
    #dbg_declare(ptr %this.addr.i, !1366, !DIExpression(), !1801)
  %this1.i = load ptr, ptr %this.addr.i, align 8
  call void @_ZNSt15__new_allocatorIiED2Ev(ptr noundef nonnull align 1 dereferenceable(1) %this1.i) #3, !dbg !1804
  ret void, !dbg !1805
}

; Function Attrs: mustprogress noinline nounwind optnone uwtable
define linkonce_odr dso_local void @_ZNSt12_Vector_baseIiSaIiEE17_Vector_impl_dataC2Ev(ptr noundef nonnull align 8 dereferenceable(24) %this) unnamed_addr #4 comdat align 2 !dbg !1806 {
entry:
  %this.addr = alloca ptr, align 8
  store ptr %this, ptr %this.addr, align 8
    #dbg_declare(ptr %this.addr, !1807, !DIExpression(), !1809)
  %this1 = load ptr, ptr %this.addr, align 8
  %_M_start = getelementptr inbounds nuw %"struct.std::_Vector_base<int, std::allocator<int>>::_Vector_impl_data", ptr %this1, i32 0, i32 0, !dbg !1810
  store ptr null, ptr %_M_start, align 8, !dbg !1810
  %_M_finish = getelementptr inbounds nuw %"struct.std::_Vector_base<int, std::allocator<int>>::_Vector_impl_data", ptr %this1, i32 0, i32 1, !dbg !1811
  store ptr null, ptr %_M_finish, align 8, !dbg !1811
  %_M_end_of_storage = getelementptr inbounds nuw %"struct.std::_Vector_base<int, std::allocator<int>>::_Vector_impl_data", ptr %this1, i32 0, i32 2, !dbg !1812
  store ptr null, ptr %_M_end_of_storage, align 8, !dbg !1812
  ret void, !dbg !1813
}

; Function Attrs: mustprogress noinline optnone uwtable
define linkonce_odr dso_local noundef ptr @_ZNSt12_Vector_baseIiSaIiEE11_M_allocateEm(ptr noundef nonnull align 8 dereferenceable(24) %this, i64 noundef %__n) #1 comdat align 2 !dbg !1814 {
entry:
  %__a.addr.i = alloca ptr, align 8
  %__n.addr.i = alloca i64, align 8
  %this.addr = alloca ptr, align 8
  %__n.addr = alloca i64, align 8
  store ptr %this, ptr %this.addr, align 8
    #dbg_declare(ptr %this.addr, !1815, !DIExpression(), !1816)
  store i64 %__n, ptr %__n.addr, align 8
    #dbg_declare(ptr %__n.addr, !1817, !DIExpression(), !1818)
  %this1 = load ptr, ptr %this.addr, align 8
  %0 = load i64, ptr %__n.addr, align 8, !dbg !1819
  %cmp = icmp ne i64 %0, 0, !dbg !1820
  br i1 %cmp, label %cond.true, label %cond.false, !dbg !1819

cond.true:                                        ; preds = %entry
  %_M_impl = getelementptr inbounds nuw %"struct.std::_Vector_base", ptr %this1, i32 0, i32 0, !dbg !1821
  %1 = load i64, ptr %__n.addr, align 8, !dbg !1822
  store ptr %_M_impl, ptr %__a.addr.i, align 8
    #dbg_declare(ptr %__a.addr.i, !1823, !DIExpression(), !1825)
  store i64 %1, ptr %__n.addr.i, align 8
    #dbg_declare(ptr %__n.addr.i, !1827, !DIExpression(), !1828)
  %2 = load ptr, ptr %__a.addr.i, align 8, !dbg !1829, !nonnull !176
  %3 = load i64, ptr %__n.addr.i, align 8, !dbg !1830
  %call.i = call noundef ptr @_ZNSt15__new_allocatorIiE8allocateEmPKv(ptr noundef nonnull align 1 dereferenceable(1) %2, i64 noundef %3, ptr noundef null), !dbg !1831
  br label %cond.end, !dbg !1819

cond.false:                                       ; preds = %entry
  br label %cond.end, !dbg !1819

cond.end:                                         ; preds = %cond.false, %cond.true
  %cond = phi ptr [ %call.i, %cond.true ], [ null, %cond.false ], !dbg !1819
  ret ptr %cond, !dbg !1832
}

; Function Attrs: mustprogress noinline optnone uwtable
define linkonce_odr dso_local noundef ptr @_ZNSt15__new_allocatorIiE8allocateEmPKv(ptr noundef nonnull align 1 dereferenceable(1) %this, i64 noundef %__n, ptr noundef %0) #1 comdat align 2 !dbg !1833 {
entry:
  %this.addr.i = alloca ptr, align 8
  %this.addr = alloca ptr, align 8
  %__n.addr = alloca i64, align 8
  %.addr = alloca ptr, align 8
  store ptr %this, ptr %this.addr, align 8
    #dbg_declare(ptr %this.addr, !1834, !DIExpression(), !1835)
  store i64 %__n, ptr %__n.addr, align 8
    #dbg_declare(ptr %__n.addr, !1836, !DIExpression(), !1837)
  store ptr %0, ptr %.addr, align 8
    #dbg_declare(ptr %.addr, !1838, !DIExpression(), !1839)
  %this1 = load ptr, ptr %this.addr, align 8
  %1 = load i64, ptr %__n.addr, align 8, !dbg !1840
  store ptr %this1, ptr %this.addr.i, align 8
    #dbg_declare(ptr %this.addr.i, !1731, !DIExpression(), !1842)
  %this1.i = load ptr, ptr %this.addr.i, align 8
  %cmp = icmp ugt i64 %1, 2305843009213693951, !dbg !1844
  br i1 %cmp, label %if.then, label %if.end4, !dbg !1845

if.then:                                          ; preds = %entry
  %2 = load i64, ptr %__n.addr, align 8, !dbg !1846
  %cmp2 = icmp ugt i64 %2, 4611686018427387903, !dbg !1849
  br i1 %cmp2, label %if.then3, label %if.end, !dbg !1849

if.then3:                                         ; preds = %if.then
  call void @_ZSt28__throw_bad_array_new_lengthv() #14, !dbg !1850
  unreachable, !dbg !1850

if.end:                                           ; preds = %if.then
  call void @_ZSt17__throw_bad_allocv() #14, !dbg !1851
  unreachable, !dbg !1851

if.end4:                                          ; preds = %entry
  %3 = load i64, ptr %__n.addr, align 8, !dbg !1852
  %mul = mul i64 %3, 4, !dbg !1853
  %call5 = call noalias noundef nonnull ptr @_Znwm(i64 noundef %mul) #15, !dbg !1854
  ret ptr %call5, !dbg !1855
}

; Function Attrs: noreturn
declare void @_ZSt28__throw_bad_array_new_lengthv() #9

; Function Attrs: noreturn
declare void @_ZSt17__throw_bad_allocv() #9

; Function Attrs: nobuiltin allocsize(0)
declare noundef nonnull ptr @_Znwm(i64 noundef) #11

; Function Attrs: mustprogress noinline nounwind optnone uwtable
define linkonce_odr dso_local void @_ZNSt15__new_allocatorIiED2Ev(ptr noundef nonnull align 1 dereferenceable(1) %this) unnamed_addr #4 comdat align 2 !dbg !1856 {
entry:
  %this.addr = alloca ptr, align 8
  store ptr %this, ptr %this.addr, align 8
    #dbg_declare(ptr %this.addr, !1857, !DIExpression(), !1858)
  %this1 = load ptr, ptr %this.addr, align 8
  ret void, !dbg !1859
}

; Function Attrs: mustprogress noinline optnone uwtable
define linkonce_odr dso_local noundef ptr @_ZSt24__uninitialized_fill_n_aIPimiiET_S1_T0_RKT1_RSaIT2_E(ptr noundef %__first, i64 noundef %__n, ptr noundef nonnull align 4 dereferenceable(4) %__x, ptr noundef nonnull align 1 dereferenceable(1) %0) #1 comdat !dbg !1860 {
entry:
  %__first.addr = alloca ptr, align 8
  %__n.addr = alloca i64, align 8
  %__x.addr = alloca ptr, align 8
  %.addr = alloca ptr, align 8
  store ptr %__first, ptr %__first.addr, align 8
    #dbg_declare(ptr %__first.addr, !1867, !DIExpression(), !1868)
  store i64 %__n, ptr %__n.addr, align 8
    #dbg_declare(ptr %__n.addr, !1869, !DIExpression(), !1870)
  store ptr %__x, ptr %__x.addr, align 8
    #dbg_declare(ptr %__x.addr, !1871, !DIExpression(), !1872)
  store ptr %0, ptr %.addr, align 8
    #dbg_declare(ptr %.addr, !1873, !DIExpression(), !1874)
  %1 = load ptr, ptr %__first.addr, align 8, !dbg !1875
  %2 = load i64, ptr %__n.addr, align 8, !dbg !1876
  %3 = load ptr, ptr %__x.addr, align 8, !dbg !1877, !nonnull !176, !align !1451
  %call = call noundef ptr @_ZSt20uninitialized_fill_nIPimiET_S1_T0_RKT1_(ptr noundef %1, i64 noundef %2, ptr noundef nonnull align 4 dereferenceable(4) %3), !dbg !1878
  ret ptr %call, !dbg !1879
}

; Function Attrs: mustprogress noinline nounwind optnone uwtable
define linkonce_odr dso_local noundef nonnull align 1 dereferenceable(1) ptr @_ZNSt12_Vector_baseIiSaIiEE19_M_get_Tp_allocatorEv(ptr noundef nonnull align 8 dereferenceable(24) %this) #4 comdat align 2 !dbg !1880 {
entry:
  %this.addr = alloca ptr, align 8
  store ptr %this, ptr %this.addr, align 8
    #dbg_declare(ptr %this.addr, !1881, !DIExpression(), !1882)
  %this1 = load ptr, ptr %this.addr, align 8
  %_M_impl = getelementptr inbounds nuw %"struct.std::_Vector_base", ptr %this1, i32 0, i32 0, !dbg !1883
  ret ptr %_M_impl, !dbg !1884
}

; Function Attrs: mustprogress noinline optnone uwtable
define linkonce_odr dso_local noundef ptr @_ZSt20uninitialized_fill_nIPimiET_S1_T0_RKT1_(ptr noundef %__first, i64 noundef %__n, ptr noundef nonnull align 4 dereferenceable(4) %__x) #1 comdat !dbg !1885 {
entry:
  %__first.addr = alloca ptr, align 8
  %__n.addr = alloca i64, align 8
  %__x.addr = alloca ptr, align 8
  %__can_fill = alloca i8, align 1
  store ptr %__first, ptr %__first.addr, align 8
    #dbg_declare(ptr %__first.addr, !1889, !DIExpression(), !1890)
  store i64 %__n, ptr %__n.addr, align 8
    #dbg_declare(ptr %__n.addr, !1891, !DIExpression(), !1892)
  store ptr %__x, ptr %__x.addr, align 8
    #dbg_declare(ptr %__x.addr, !1893, !DIExpression(), !1894)
    #dbg_declare(ptr %__can_fill, !1895, !DIExpression(), !1896)
  store i8 1, ptr %__can_fill, align 1, !dbg !1896
  %0 = load ptr, ptr %__first.addr, align 8, !dbg !1897
  %1 = load i64, ptr %__n.addr, align 8, !dbg !1898
  %2 = load ptr, ptr %__x.addr, align 8, !dbg !1899, !nonnull !176, !align !1451
  %call = call noundef ptr @_ZNSt22__uninitialized_fill_nILb1EE15__uninit_fill_nIPimiEET_S3_T0_RKT1_(ptr noundef %0, i64 noundef %1, ptr noundef nonnull align 4 dereferenceable(4) %2), !dbg !1900
  ret ptr %call, !dbg !1901
}

; Function Attrs: mustprogress noinline optnone uwtable
define linkonce_odr dso_local noundef ptr @_ZNSt22__uninitialized_fill_nILb1EE15__uninit_fill_nIPimiEET_S3_T0_RKT1_(ptr noundef %__first, i64 noundef %__n, ptr noundef nonnull align 4 dereferenceable(4) %__x) #1 comdat align 2 !dbg !1902 {
entry:
  %__first.addr = alloca ptr, align 8
  %__n.addr = alloca i64, align 8
  %__x.addr = alloca ptr, align 8
  store ptr %__first, ptr %__first.addr, align 8
    #dbg_declare(ptr %__first.addr, !1907, !DIExpression(), !1908)
  store i64 %__n, ptr %__n.addr, align 8
    #dbg_declare(ptr %__n.addr, !1909, !DIExpression(), !1910)
  store ptr %__x, ptr %__x.addr, align 8
    #dbg_declare(ptr %__x.addr, !1911, !DIExpression(), !1912)
  %0 = load ptr, ptr %__first.addr, align 8, !dbg !1913
  %1 = load i64, ptr %__n.addr, align 8, !dbg !1914
  %2 = load ptr, ptr %__x.addr, align 8, !dbg !1915, !nonnull !176, !align !1451
  %call = call noundef ptr @_ZSt6fill_nIPimiET_S1_T0_RKT1_(ptr noundef %0, i64 noundef %1, ptr noundef nonnull align 4 dereferenceable(4) %2), !dbg !1916
  ret ptr %call, !dbg !1917
}

; Function Attrs: mustprogress noinline optnone uwtable
define linkonce_odr dso_local noundef ptr @_ZSt6fill_nIPimiET_S1_T0_RKT1_(ptr noundef %__first, i64 noundef %__n, ptr noundef nonnull align 4 dereferenceable(4) %__value) #1 comdat !dbg !1918 {
entry:
  %.addr.i = alloca ptr, align 8
  %__first.addr = alloca ptr, align 8
  %__n.addr = alloca i64, align 8
  %__value.addr = alloca ptr, align 8
  %agg.tmp = alloca %"struct.std::random_access_iterator_tag", align 1
  %undef.agg.tmp = alloca %"struct.std::random_access_iterator_tag", align 1
  store ptr %__first, ptr %__first.addr, align 8
    #dbg_declare(ptr %__first.addr, !1921, !DIExpression(), !1922)
  store i64 %__n, ptr %__n.addr, align 8
    #dbg_declare(ptr %__n.addr, !1923, !DIExpression(), !1924)
  store ptr %__value, ptr %__value.addr, align 8
    #dbg_declare(ptr %__value.addr, !1925, !DIExpression(), !1926)
  %0 = load ptr, ptr %__first.addr, align 8, !dbg !1927
  %1 = load i64, ptr %__n.addr, align 8, !dbg !1928
  %call = call noundef i64 @_ZSt17__size_to_integerm(i64 noundef %1), !dbg !1929
  %2 = load ptr, ptr %__value.addr, align 8, !dbg !1930, !nonnull !176, !align !1451
  store ptr %__first.addr, ptr %.addr.i, align 8
    #dbg_declare(ptr %.addr.i, !1931, !DIExpression(), !1954)
  %call1 = call noundef ptr @_ZSt10__fill_n_aIPimiET_S1_T0_RKT1_St26random_access_iterator_tag(ptr noundef %0, i64 noundef %call, ptr noundef nonnull align 4 dereferenceable(4) %2), !dbg !1956
  ret ptr %call1, !dbg !1957
}

; Function Attrs: mustprogress noinline optnone uwtable
define linkonce_odr dso_local noundef ptr @_ZSt10__fill_n_aIPimiET_S1_T0_RKT1_St26random_access_iterator_tag(ptr noundef %__first, i64 noundef %__n, ptr noundef nonnull align 4 dereferenceable(4) %__value) #1 comdat !dbg !1958 {
entry:
  %retval = alloca ptr, align 8
  %0 = alloca %"struct.std::random_access_iterator_tag", align 1
  %__first.addr = alloca ptr, align 8
  %__n.addr = alloca i64, align 8
  %__value.addr = alloca ptr, align 8
  store ptr %__first, ptr %__first.addr, align 8
    #dbg_declare(ptr %__first.addr, !1963, !DIExpression(), !1964)
  store i64 %__n, ptr %__n.addr, align 8
    #dbg_declare(ptr %__n.addr, !1965, !DIExpression(), !1966)
  store ptr %__value, ptr %__value.addr, align 8
    #dbg_declare(ptr %__value.addr, !1967, !DIExpression(), !1968)
    #dbg_declare(ptr %0, !1969, !DIExpression(), !1970)
  %1 = load i64, ptr %__n.addr, align 8, !dbg !1971
  %cmp = icmp ule i64 %1, 0, !dbg !1973
  br i1 %cmp, label %if.then, label %if.end, !dbg !1973

if.then:                                          ; preds = %entry
  %2 = load ptr, ptr %__first.addr, align 8, !dbg !1974
  store ptr %2, ptr %retval, align 8, !dbg !1975
  br label %return, !dbg !1975

if.end:                                           ; preds = %entry
  %3 = load ptr, ptr %__first.addr, align 8, !dbg !1976
  %4 = load ptr, ptr %__first.addr, align 8, !dbg !1977
  %5 = load i64, ptr %__n.addr, align 8, !dbg !1978
  %add.ptr = getelementptr inbounds nuw i32, ptr %4, i64 %5, !dbg !1979
  %6 = load ptr, ptr %__value.addr, align 8, !dbg !1980, !nonnull !176, !align !1451
  call void @_ZSt8__fill_aIPiiEvT_S1_RKT0_(ptr noundef %3, ptr noundef %add.ptr, ptr noundef nonnull align 4 dereferenceable(4) %6), !dbg !1981
  %7 = load ptr, ptr %__first.addr, align 8, !dbg !1982
  %8 = load i64, ptr %__n.addr, align 8, !dbg !1983
  %add.ptr1 = getelementptr inbounds nuw i32, ptr %7, i64 %8, !dbg !1984
  store ptr %add.ptr1, ptr %retval, align 8, !dbg !1985
  br label %return, !dbg !1985

return:                                           ; preds = %if.end, %if.then
  %9 = load ptr, ptr %retval, align 8, !dbg !1986
  ret ptr %9, !dbg !1986
}

; Function Attrs: mustprogress noinline nounwind optnone uwtable
define linkonce_odr dso_local noundef i64 @_ZSt17__size_to_integerm(i64 noundef %__n) #4 comdat !dbg !1987 {
entry:
  %__n.addr = alloca i64, align 8
  store i64 %__n, ptr %__n.addr, align 8
    #dbg_declare(ptr %__n.addr, !1990, !DIExpression(), !1991)
  %0 = load i64, ptr %__n.addr, align 8, !dbg !1992
  ret i64 %0, !dbg !1993
}

; Function Attrs: mustprogress noinline optnone uwtable
define linkonce_odr dso_local void @_ZSt8__fill_aIPiiEvT_S1_RKT0_(ptr noundef %__first, ptr noundef %__last, ptr noundef nonnull align 4 dereferenceable(4) %__value) #1 comdat !dbg !1994 {
entry:
  %__first.addr = alloca ptr, align 8
  %__last.addr = alloca ptr, align 8
  %__value.addr = alloca ptr, align 8
  store ptr %__first, ptr %__first.addr, align 8
    #dbg_declare(ptr %__first.addr, !1999, !DIExpression(), !2000)
  store ptr %__last, ptr %__last.addr, align 8
    #dbg_declare(ptr %__last.addr, !2001, !DIExpression(), !2002)
  store ptr %__value, ptr %__value.addr, align 8
    #dbg_declare(ptr %__value.addr, !2003, !DIExpression(), !2004)
  %0 = load ptr, ptr %__first.addr, align 8, !dbg !2005
  %1 = load ptr, ptr %__last.addr, align 8, !dbg !2006
  %2 = load ptr, ptr %__value.addr, align 8, !dbg !2007, !nonnull !176, !align !1451
  call void @_ZSt9__fill_a1IPiiEN9__gnu_cxx11__enable_ifIXsr11__is_scalarIT0_EE7__valueEvE6__typeET_S6_RKS3_(ptr noundef %0, ptr noundef %1, ptr noundef nonnull align 4 dereferenceable(4) %2), !dbg !2008
  ret void, !dbg !2009
}

; Function Attrs: mustprogress noinline nounwind optnone uwtable
define linkonce_odr dso_local void @_ZSt9__fill_a1IPiiEN9__gnu_cxx11__enable_ifIXsr11__is_scalarIT0_EE7__valueEvE6__typeET_S6_RKS3_(ptr noundef %__first, ptr noundef %__last, ptr noundef nonnull align 4 dereferenceable(4) %__value) #4 comdat !dbg !2010 {
entry:
  %__first.addr = alloca ptr, align 8
  %__last.addr = alloca ptr, align 8
  %__value.addr = alloca ptr, align 8
  %__tmp = alloca i32, align 4
  store ptr %__first, ptr %__first.addr, align 8
    #dbg_declare(ptr %__first.addr, !2019, !DIExpression(), !2020)
  store ptr %__last, ptr %__last.addr, align 8
    #dbg_declare(ptr %__last.addr, !2021, !DIExpression(), !2022)
  store ptr %__value, ptr %__value.addr, align 8
    #dbg_declare(ptr %__value.addr, !2023, !DIExpression(), !2024)
    #dbg_declare(ptr %__tmp, !2025, !DIExpression(), !2026)
  %0 = load ptr, ptr %__value.addr, align 8, !dbg !2027, !nonnull !176, !align !1451
  %1 = load i32, ptr %0, align 4, !dbg !2027
  store i32 %1, ptr %__tmp, align 4, !dbg !2026
  br label %for.cond, !dbg !2028

for.cond:                                         ; preds = %for.inc, %entry
  %2 = load ptr, ptr %__first.addr, align 8, !dbg !2029
  %3 = load ptr, ptr %__last.addr, align 8, !dbg !2032
  %cmp = icmp ne ptr %2, %3, !dbg !2033
  br i1 %cmp, label %for.body, label %for.end, !dbg !2034

for.body:                                         ; preds = %for.cond
  %4 = load i32, ptr %__tmp, align 4, !dbg !2035
  %5 = load ptr, ptr %__first.addr, align 8, !dbg !2036
  store i32 %4, ptr %5, align 4, !dbg !2037
  br label %for.inc, !dbg !2038

for.inc:                                          ; preds = %for.body
  %6 = load ptr, ptr %__first.addr, align 8, !dbg !2039
  %incdec.ptr = getelementptr inbounds nuw i32, ptr %6, i32 1, !dbg !2039
  store ptr %incdec.ptr, ptr %__first.addr, align 8, !dbg !2039
  br label %for.cond, !dbg !2040, !llvm.loop !2041

for.end:                                          ; preds = %for.cond
  ret void, !dbg !2044
}

; Function Attrs: mustprogress noinline optnone uwtable
define linkonce_odr dso_local void @_ZNSt12_Vector_baseIiSaIiEE13_M_deallocateEPim(ptr noundef nonnull align 8 dereferenceable(24) %this, ptr noundef %__p, i64 noundef %__n) #1 comdat align 2 !dbg !2045 {
entry:
  %__a.addr.i = alloca ptr, align 8
  %__p.addr.i = alloca ptr, align 8
  %__n.addr.i = alloca i64, align 8
  %this.addr = alloca ptr, align 8
  %__p.addr = alloca ptr, align 8
  %__n.addr = alloca i64, align 8
  store ptr %this, ptr %this.addr, align 8
    #dbg_declare(ptr %this.addr, !2046, !DIExpression(), !2047)
  store ptr %__p, ptr %__p.addr, align 8
    #dbg_declare(ptr %__p.addr, !2048, !DIExpression(), !2049)
  store i64 %__n, ptr %__n.addr, align 8
    #dbg_declare(ptr %__n.addr, !2050, !DIExpression(), !2051)
  %this1 = load ptr, ptr %this.addr, align 8
  %0 = load ptr, ptr %__p.addr, align 8, !dbg !2052
  %tobool = icmp ne ptr %0, null, !dbg !2052
  br i1 %tobool, label %if.then, label %if.end, !dbg !2052

if.then:                                          ; preds = %entry
  %_M_impl = getelementptr inbounds nuw %"struct.std::_Vector_base", ptr %this1, i32 0, i32 0, !dbg !2054
  %1 = load ptr, ptr %__p.addr, align 8, !dbg !2055
  %2 = load i64, ptr %__n.addr, align 8, !dbg !2056
  store ptr %_M_impl, ptr %__a.addr.i, align 8
    #dbg_declare(ptr %__a.addr.i, !2057, !DIExpression(), !2059)
  store ptr %1, ptr %__p.addr.i, align 8
    #dbg_declare(ptr %__p.addr.i, !2061, !DIExpression(), !2062)
  store i64 %2, ptr %__n.addr.i, align 8
    #dbg_declare(ptr %__n.addr.i, !2063, !DIExpression(), !2064)
  %3 = load ptr, ptr %__a.addr.i, align 8, !dbg !2065, !nonnull !176
  %4 = load ptr, ptr %__p.addr.i, align 8, !dbg !2066
  %5 = load i64, ptr %__n.addr.i, align 8, !dbg !2067
  call void @_ZNSt15__new_allocatorIiE10deallocateEPim(ptr noundef nonnull align 1 dereferenceable(1) %3, ptr noundef %4, i64 noundef %5), !dbg !2068
  br label %if.end, !dbg !2069

if.end:                                           ; preds = %if.then, %entry
  ret void, !dbg !2070
}

; Function Attrs: mustprogress noinline nounwind optnone uwtable
define linkonce_odr dso_local void @_ZNSt15__new_allocatorIiE10deallocateEPim(ptr noundef nonnull align 1 dereferenceable(1) %this, ptr noundef %__p, i64 noundef %__n) #4 comdat align 2 !dbg !2071 {
entry:
  %this.addr = alloca ptr, align 8
  %__p.addr = alloca ptr, align 8
  %__n.addr = alloca i64, align 8
  store ptr %this, ptr %this.addr, align 8
    #dbg_declare(ptr %this.addr, !2072, !DIExpression(), !2073)
  store ptr %__p, ptr %__p.addr, align 8
    #dbg_declare(ptr %__p.addr, !2074, !DIExpression(), !2075)
  store i64 %__n, ptr %__n.addr, align 8
    #dbg_declare(ptr %__n.addr, !2076, !DIExpression(), !2077)
  %this1 = load ptr, ptr %this.addr, align 8
  %0 = load ptr, ptr %__p.addr, align 8, !dbg !2078
  %1 = load i64, ptr %__n.addr, align 8, !dbg !2078
  %mul = mul i64 %1, 4, !dbg !2078
  call void @_ZdlPvm(ptr noundef %0, i64 noundef %mul) #16, !dbg !2079
  ret void, !dbg !2080
}

; Function Attrs: nobuiltin nounwind
declare void @_ZdlPvm(ptr noundef, i64 noundef) #12

; Function Attrs: mustprogress noinline optnone uwtable
define linkonce_odr dso_local void @_ZSt8_DestroyIPiEvT_S1_(ptr noundef %__first, ptr noundef %__last) #1 comdat !dbg !2081 {
entry:
  %__first.addr = alloca ptr, align 8
  %__last.addr = alloca ptr, align 8
  store ptr %__first, ptr %__first.addr, align 8
    #dbg_declare(ptr %__first.addr, !2086, !DIExpression(), !2087)
  store ptr %__last, ptr %__last.addr, align 8
    #dbg_declare(ptr %__last.addr, !2088, !DIExpression(), !2089)
  %0 = load ptr, ptr %__first.addr, align 8, !dbg !2090
  %1 = load ptr, ptr %__last.addr, align 8, !dbg !2091
  call void @_ZNSt12_Destroy_auxILb1EE9__destroyIPiEEvT_S3_(ptr noundef %0, ptr noundef %1), !dbg !2092
  ret void, !dbg !2093
}

; Function Attrs: mustprogress noinline nounwind optnone uwtable
define linkonce_odr dso_local void @_ZNSt12_Destroy_auxILb1EE9__destroyIPiEEvT_S3_(ptr noundef %0, ptr noundef %1) #4 comdat align 2 !dbg !2094 {
entry:
  %.addr = alloca ptr, align 8
  %.addr1 = alloca ptr, align 8
  store ptr %0, ptr %.addr, align 8
    #dbg_declare(ptr %.addr, !2098, !DIExpression(), !2099)
  store ptr %1, ptr %.addr1, align 8
    #dbg_declare(ptr %.addr1, !2100, !DIExpression(), !2101)
  ret void, !dbg !2102
}

attributes #0 = { mustprogress noinline norecurse optnone uwtable "frame-pointer"="all" "min-legal-vector-width"="0" "no-trapping-math"="true" "stack-protector-buffer-size"="8" "target-cpu"="x86-64" "target-features"="+cmov,+cx8,+fxsr,+mmx,+sse,+sse2,+x87" "tune-cpu"="generic" }
attributes #1 = { mustprogress noinline optnone uwtable "frame-pointer"="all" "min-legal-vector-width"="0" "no-trapping-math"="true" "stack-protector-buffer-size"="8" "target-cpu"="x86-64" "target-features"="+cmov,+cx8,+fxsr,+mmx,+sse,+sse2,+x87" "tune-cpu"="generic" }
attributes #2 = { noinline norecurse nounwind optnone uwtable "frame-pointer"="all" "min-legal-vector-width"="0" "no-trapping-math"="true" "stack-protector-buffer-size"="8" "target-cpu"="x86-64" "target-features"="+cmov,+cx8,+fxsr,+mmx,+sse,+sse2,+x87" "tune-cpu"="generic" }
attributes #3 = { nounwind }
attributes #4 = { mustprogress noinline nounwind optnone uwtable "frame-pointer"="all" "min-legal-vector-width"="0" "no-trapping-math"="true" "stack-protector-buffer-size"="8" "target-cpu"="x86-64" "target-features"="+cmov,+cx8,+fxsr,+mmx,+sse,+sse2,+x87" "tune-cpu"="generic" }
attributes #5 = { noinline norecurse uwtable "frame-pointer"="all" "min-legal-vector-width"="0" "no-trapping-math"="true" "stack-protector-buffer-size"="8" "target-cpu"="x86-64" "target-features"="+cmov,+cx8,+fxsr,+mmx,+sse,+sse2,+x87" "tune-cpu"="generic" }
attributes #6 = { convergent nounwind }
attributes #7 = { "frame-pointer"="all" "no-trapping-math"="true" "stack-protector-buffer-size"="8" "target-cpu"="x86-64" "target-features"="+cmov,+cx8,+fxsr,+mmx,+sse,+sse2,+x87" "tune-cpu"="generic" }
attributes #8 = { noinline norecurse optnone uwtable "frame-pointer"="all" "min-legal-vector-width"="0" "no-trapping-math"="true" "stack-protector-buffer-size"="8" "target-cpu"="x86-64" "target-features"="+cmov,+cx8,+fxsr,+mmx,+sse,+sse2,+x87" "tune-cpu"="generic" }
attributes #9 = { noreturn "frame-pointer"="all" "no-trapping-math"="true" "stack-protector-buffer-size"="8" "target-cpu"="x86-64" "target-features"="+cmov,+cx8,+fxsr,+mmx,+sse,+sse2,+x87" "tune-cpu"="generic" }
attributes #10 = { noinline noreturn nounwind uwtable "frame-pointer"="all" "no-trapping-math"="true" "stack-protector-buffer-size"="8" "target-cpu"="x86-64" "target-features"="+cmov,+cx8,+fxsr,+mmx,+sse,+sse2,+x87" "tune-cpu"="generic" }
attributes #11 = { nobuiltin allocsize(0) "frame-pointer"="all" "no-trapping-math"="true" "stack-protector-buffer-size"="8" "target-cpu"="x86-64" "target-features"="+cmov,+cx8,+fxsr,+mmx,+sse,+sse2,+x87" "tune-cpu"="generic" }
attributes #12 = { nobuiltin nounwind "frame-pointer"="all" "no-trapping-math"="true" "stack-protector-buffer-size"="8" "target-cpu"="x86-64" "target-features"="+cmov,+cx8,+fxsr,+mmx,+sse,+sse2,+x87" "tune-cpu"="generic" }
attributes #13 = { noreturn nounwind }
attributes #14 = { noreturn }
attributes #15 = { builtin allocsize(0) }
attributes #16 = { builtin nounwind }

!llvm.dbg.cu = !{!39}
!llvm.module.flags = !{!1341, !1342, !1343, !1344, !1345, !1346, !1347, !1348}
!llvm.ident = !{!1349}

!0 = !DIGlobalVariableExpression(var: !1, expr: !DIExpression())
!1 = distinct !DIGlobalVariable(scope: null, file: !2, line: 17, type: !3, isLocal: true, isDefinition: true)
!2 = !DIFile(filename: "../test.cpp", directory: "/home/lekhana/omp-ir-mapper/build", checksumkind: CSK_MD5, checksum: "0245c7cb48066ffd5098191863980005")
!3 = !DICompositeType(tag: DW_TAG_array_type, baseType: !4, size: 288, elements: !6)
!4 = !DIDerivedType(tag: DW_TAG_const_type, baseType: !5)
!5 = !DIBasicType(name: "char", size: 8, encoding: DW_ATE_signed_char)
!6 = !{!7}
!7 = !DISubrange(count: 36)
!8 = !DIGlobalVariableExpression(var: !9, expr: !DIExpression())
!9 = distinct !DIGlobalVariable(scope: null, file: !2, line: 29, type: !10, isLocal: true, isDefinition: true)
!10 = !DICompositeType(tag: DW_TAG_array_type, baseType: !4, size: 32, elements: !11)
!11 = !{!12}
!12 = !DISubrange(count: 4)
!13 = !DIGlobalVariableExpression(var: !14, expr: !DIExpression())
!14 = distinct !DIGlobalVariable(scope: null, file: !2, line: 29, type: !15, isLocal: true, isDefinition: true)
!15 = !DICompositeType(tag: DW_TAG_array_type, baseType: !4, size: 48, elements: !16)
!16 = !{!17}
!17 = !DISubrange(count: 6)
!18 = !DIGlobalVariableExpression(var: !19, expr: !DIExpression())
!19 = distinct !DIGlobalVariable(scope: null, file: !2, line: 38, type: !20, isLocal: true, isDefinition: true)
!20 = !DICompositeType(tag: DW_TAG_array_type, baseType: !4, size: 208, elements: !21)
!21 = !{!22}
!22 = !DISubrange(count: 26)
!23 = !DIGlobalVariableExpression(var: !24, expr: !DIExpression())
!24 = distinct !DIGlobalVariable(scope: null, file: !2, line: 47, type: !25, isLocal: true, isDefinition: true)
!25 = !DICompositeType(tag: DW_TAG_array_type, baseType: !4, size: 136, elements: !26)
!26 = !{!27}
!27 = !DISubrange(count: 17)
!28 = !DIGlobalVariableExpression(var: !29, expr: !DIExpression())
!29 = distinct !DIGlobalVariable(scope: null, file: !2, line: 55, type: !30, isLocal: true, isDefinition: true)
!30 = !DICompositeType(tag: DW_TAG_array_type, baseType: !4, size: 256, elements: !31)
!31 = !{!32}
!32 = !DISubrange(count: 32)
!33 = !DIGlobalVariableExpression(var: !34, expr: !DIExpression())
!34 = distinct !DIGlobalVariable(scope: null, file: !35, line: 1911, type: !36, isLocal: true, isDefinition: true)
!35 = !DIFile(filename: "/usr/lib/gcc/x86_64-linux-gnu/13/../../../../include/c++/13/bits/stl_vector.h", directory: "", checksumkind: CSK_MD5, checksum: "514164964ac06e2061e9e779d8cf420e")
!36 = !DICompositeType(tag: DW_TAG_array_type, baseType: !4, size: 392, elements: !37)
!37 = !{!38}
!38 = !DISubrange(count: 49)
!39 = distinct !DICompileUnit(language: DW_LANG_C_plus_plus_14, file: !2, producer: "clang version 21.0.0git (https://github.com/llvm/llvm-project.git e4c3b037bc7f5d9a8089de4c509d3e6034735891)", isOptimized: false, runtimeVersion: 0, emissionKind: FullDebug, retainedTypes: !40, globals: !540, imports: !541, splitDebugInlining: false, nameTableKind: None)
!40 = !{!41, !113, !116, !67, !71, !77, !42, !46, !49, !179}
!41 = !DIDerivedType(tag: DW_TAG_typedef, name: "_Tp_alloc_type", scope: !42, file: !35, line: 449, baseType: !52)
!42 = distinct !DICompositeType(tag: DW_TAG_class_type, name: "vector<int, std::allocator<int> >", scope: !43, file: !35, line: 428, size: 192, flags: DIFlagTypePassByReference | DIFlagNonTrivial, elements: !44, templateParams: !538, identifier: "_ZTSSt6vectorIiSaIiEE")
!43 = !DINamespace(name: "std", scope: null)
!44 = !{!45, !273, !292, !308, !309, !314, !317, !320, !324, !330, !334, !340, !345, !349, !359, !362, !365, !368, !373, !374, !378, !381, !384, !387, !390, !396, !402, !403, !404, !409, !414, !415, !416, !417, !418, !419, !420, !423, !424, !427, !428, !429, !430, !433, !434, !442, !449, !452, !453, !454, !457, !460, !461, !462, !465, !468, !471, !475, !476, !479, !482, !485, !488, !491, !494, !497, !498, !499, !500, !501, !504, !505, !508, !509, !510, !515, !518, !523, !526, !529, !532, !535}
!45 = !DIDerivedType(tag: DW_TAG_inheritance, scope: !42, baseType: !46, flags: DIFlagProtected, extraData: i32 0)
!46 = distinct !DICompositeType(tag: DW_TAG_structure_type, name: "_Vector_base<int, std::allocator<int> >", scope: !43, file: !35, line: 85, size: 192, flags: DIFlagTypePassByReference | DIFlagNonTrivial, elements: !47, templateParams: !272, identifier: "_ZTSSt12_Vector_baseIiSaIiEE")
!47 = !{!48, !223, !228, !233, !237, !240, !245, !248, !251, !255, !258, !261, !264, !265, !268, !271}
!48 = !DIDerivedType(tag: DW_TAG_member, name: "_M_impl", scope: !46, file: !35, line: 374, baseType: !49, size: 192)
!49 = distinct !DICompositeType(tag: DW_TAG_structure_type, name: "_Vector_impl", scope: !46, file: !35, line: 133, size: 192, flags: DIFlagTypePassByReference | DIFlagNonTrivial, elements: !50, identifier: "_ZTSNSt12_Vector_baseIiSaIiEE12_Vector_implE")
!50 = !{!51, !178, !203, !207, !212, !216, !220}
!51 = !DIDerivedType(tag: DW_TAG_inheritance, scope: !49, baseType: !52, extraData: i32 0)
!52 = !DIDerivedType(tag: DW_TAG_typedef, name: "_Tp_alloc_type", scope: !46, file: !35, line: 88, baseType: !53)
!53 = !DIDerivedType(tag: DW_TAG_typedef, name: "other", scope: !55, file: !54, line: 126, baseType: !177)
!54 = !DIFile(filename: "/usr/lib/gcc/x86_64-linux-gnu/13/../../../../include/c++/13/ext/alloc_traits.h", directory: "")
!55 = distinct !DICompositeType(tag: DW_TAG_structure_type, name: "rebind<int>", scope: !56, file: !54, line: 125, size: 8, flags: DIFlagTypePassByValue, elements: !176, templateParams: !125, identifier: "_ZTSN9__gnu_cxx14__alloc_traitsISaIiEiE6rebindIiEE")
!56 = distinct !DICompositeType(tag: DW_TAG_structure_type, name: "__alloc_traits<std::allocator<int>, int>", scope: !57, file: !54, line: 45, size: 8, flags: DIFlagTypePassByValue, elements: !58, templateParams: !174, identifier: "_ZTSN9__gnu_cxx14__alloc_traitsISaIiEiEE")
!57 = !DINamespace(name: "__gnu_cxx", scope: null)
!58 = !{!59, !160, !163, !166, !170, !171, !172, !173}
!59 = !DIDerivedType(tag: DW_TAG_inheritance, scope: !56, baseType: !60, extraData: i32 0)
!60 = distinct !DICompositeType(tag: DW_TAG_structure_type, name: "allocator_traits<std::allocator<int> >", scope: !43, file: !61, line: 428, size: 8, flags: DIFlagTypePassByValue, elements: !62, templateParams: !158, identifier: "_ZTSSt16allocator_traitsISaIiEE")
!61 = !DIFile(filename: "/usr/lib/gcc/x86_64-linux-gnu/13/../../../../include/c++/13/bits/alloc_traits.h", directory: "", checksumkind: CSK_MD5, checksum: "ba5569b3568669c1c77efc18640dd1aa")
!62 = !{!63, !142, !146, !149, !155}
!63 = !DISubprogram(name: "allocate", linkageName: "_ZNSt16allocator_traitsISaIiEE8allocateERS0_m", scope: !60, file: !61, line: 481, type: !64, scopeLine: 481, flags: DIFlagPrototyped | DIFlagStaticMember, spFlags: 0)
!64 = !DISubroutineType(types: !65)
!65 = !{!66, !69, !141}
!66 = !DIDerivedType(tag: DW_TAG_typedef, name: "pointer", scope: !60, file: !61, line: 437, baseType: !67)
!67 = !DIDerivedType(tag: DW_TAG_pointer_type, baseType: !68, size: 64)
!68 = !DIBasicType(name: "int", size: 32, encoding: DW_ATE_signed)
!69 = !DIDerivedType(tag: DW_TAG_reference_type, baseType: !70, size: 64)
!70 = !DIDerivedType(tag: DW_TAG_typedef, name: "allocator_type", scope: !60, file: !61, line: 431, baseType: !71)
!71 = distinct !DICompositeType(tag: DW_TAG_class_type, name: "allocator<int>", scope: !43, file: !72, line: 130, size: 8, flags: DIFlagTypePassByReference | DIFlagNonTrivial, elements: !73, templateParams: !125, identifier: "_ZTSSaIiE")
!72 = !DIFile(filename: "/usr/lib/gcc/x86_64-linux-gnu/13/../../../../include/c++/13/bits/allocator.h", directory: "", checksumkind: CSK_MD5, checksum: "9c5b773ad00830bea46f2a8fa4ac22e7")
!73 = !{!74, !127, !131, !136, !140}
!74 = !DIDerivedType(tag: DW_TAG_inheritance, scope: !71, baseType: !75, flags: DIFlagPublic, extraData: i32 0)
!75 = !DIDerivedType(tag: DW_TAG_typedef, name: "__allocator_base<int>", scope: !43, file: !76, line: 47, baseType: !77)
!76 = !DIFile(filename: "/usr/lib/gcc/x86_64-linux-gnu/13/../../../../include/x86_64-linux-gnu/c++/13/bits/c++allocator.h", directory: "", checksumkind: CSK_MD5, checksum: "f56d3b48d132e35738b60e08703928ec")
!77 = distinct !DICompositeType(tag: DW_TAG_class_type, name: "__new_allocator<int>", scope: !43, file: !78, line: 63, size: 8, flags: DIFlagTypePassByReference | DIFlagNonTrivial, elements: !79, templateParams: !125, identifier: "_ZTSSt15__new_allocatorIiE")
!78 = !DIFile(filename: "/usr/lib/gcc/x86_64-linux-gnu/13/../../../../include/c++/13/bits/new_allocator.h", directory: "", checksumkind: CSK_MD5, checksum: "c7892ebb1170c1f49c5be98396a83230")
!79 = !{!80, !84, !89, !93, !94, !101, !109, !118, !121, !124}
!80 = !DISubprogram(name: "__new_allocator", scope: !77, file: !78, line: 88, type: !81, scopeLine: 88, flags: DIFlagPublic | DIFlagPrototyped, spFlags: 0)
!81 = !DISubroutineType(types: !82)
!82 = !{null, !83}
!83 = !DIDerivedType(tag: DW_TAG_pointer_type, baseType: !77, size: 64, flags: DIFlagArtificial | DIFlagObjectPointer)
!84 = !DISubprogram(name: "__new_allocator", scope: !77, file: !78, line: 92, type: !85, scopeLine: 92, flags: DIFlagPublic | DIFlagPrototyped, spFlags: 0)
!85 = !DISubroutineType(types: !86)
!86 = !{null, !83, !87}
!87 = !DIDerivedType(tag: DW_TAG_reference_type, baseType: !88, size: 64)
!88 = !DIDerivedType(tag: DW_TAG_const_type, baseType: !77)
!89 = !DISubprogram(name: "operator=", linkageName: "_ZNSt15__new_allocatorIiEaSERKS0_", scope: !77, file: !78, line: 100, type: !90, scopeLine: 100, flags: DIFlagPublic | DIFlagPrototyped, spFlags: 0)
!90 = !DISubroutineType(types: !91)
!91 = !{!92, !83, !87}
!92 = !DIDerivedType(tag: DW_TAG_reference_type, baseType: !77, size: 64)
!93 = !DISubprogram(name: "~__new_allocator", scope: !77, file: !78, line: 104, type: !81, scopeLine: 104, flags: DIFlagPublic | DIFlagPrototyped, spFlags: 0)
!94 = !DISubprogram(name: "address", linkageName: "_ZNKSt15__new_allocatorIiE7addressERi", scope: !77, file: !78, line: 107, type: !95, scopeLine: 107, flags: DIFlagPublic | DIFlagPrototyped, spFlags: 0)
!95 = !DISubroutineType(types: !96)
!96 = !{!97, !98, !99}
!97 = !DIDerivedType(tag: DW_TAG_typedef, name: "pointer", scope: !77, file: !78, line: 70, baseType: !67, flags: DIFlagPublic)
!98 = !DIDerivedType(tag: DW_TAG_pointer_type, baseType: !88, size: 64, flags: DIFlagArtificial | DIFlagObjectPointer)
!99 = !DIDerivedType(tag: DW_TAG_typedef, name: "reference", scope: !77, file: !78, line: 72, baseType: !100, flags: DIFlagPublic)
!100 = !DIDerivedType(tag: DW_TAG_reference_type, baseType: !68, size: 64)
!101 = !DISubprogram(name: "address", linkageName: "_ZNKSt15__new_allocatorIiE7addressERKi", scope: !77, file: !78, line: 111, type: !102, scopeLine: 111, flags: DIFlagPublic | DIFlagPrototyped, spFlags: 0)
!102 = !DISubroutineType(types: !103)
!103 = !{!104, !98, !107}
!104 = !DIDerivedType(tag: DW_TAG_typedef, name: "const_pointer", scope: !77, file: !78, line: 71, baseType: !105, flags: DIFlagPublic)
!105 = !DIDerivedType(tag: DW_TAG_pointer_type, baseType: !106, size: 64)
!106 = !DIDerivedType(tag: DW_TAG_const_type, baseType: !68)
!107 = !DIDerivedType(tag: DW_TAG_typedef, name: "const_reference", scope: !77, file: !78, line: 73, baseType: !108, flags: DIFlagPublic)
!108 = !DIDerivedType(tag: DW_TAG_reference_type, baseType: !106, size: 64)
!109 = !DISubprogram(name: "allocate", linkageName: "_ZNSt15__new_allocatorIiE8allocateEmPKv", scope: !77, file: !78, line: 126, type: !110, scopeLine: 126, flags: DIFlagPublic | DIFlagPrototyped, spFlags: 0)
!110 = !DISubroutineType(types: !111)
!111 = !{!67, !83, !112, !116}
!112 = !DIDerivedType(tag: DW_TAG_typedef, name: "size_type", file: !78, line: 67, baseType: !113, flags: DIFlagPublic)
!113 = !DIDerivedType(tag: DW_TAG_typedef, name: "size_t", scope: !43, file: !114, line: 308, baseType: !115)
!114 = !DIFile(filename: "/usr/lib/gcc/x86_64-linux-gnu/13/../../../../include/x86_64-linux-gnu/c++/13/bits/c++config.h", directory: "", checksumkind: CSK_MD5, checksum: "449d6dbeca4f3eea299d97c24eb9ed95")
!115 = !DIBasicType(name: "unsigned long", size: 64, encoding: DW_ATE_unsigned)
!116 = !DIDerivedType(tag: DW_TAG_pointer_type, baseType: !117, size: 64)
!117 = !DIDerivedType(tag: DW_TAG_const_type, baseType: null)
!118 = !DISubprogram(name: "deallocate", linkageName: "_ZNSt15__new_allocatorIiE10deallocateEPim", scope: !77, file: !78, line: 156, type: !119, scopeLine: 156, flags: DIFlagPublic | DIFlagPrototyped, spFlags: 0)
!119 = !DISubroutineType(types: !120)
!120 = !{null, !83, !67, !112}
!121 = !DISubprogram(name: "max_size", linkageName: "_ZNKSt15__new_allocatorIiE8max_sizeEv", scope: !77, file: !78, line: 182, type: !122, scopeLine: 182, flags: DIFlagPublic | DIFlagPrototyped, spFlags: 0)
!122 = !DISubroutineType(types: !123)
!123 = !{!112, !98}
!124 = !DISubprogram(name: "_M_max_size", linkageName: "_ZNKSt15__new_allocatorIiE11_M_max_sizeEv", scope: !77, file: !78, line: 230, type: !122, scopeLine: 230, flags: DIFlagPrototyped, spFlags: 0)
!125 = !{!126}
!126 = !DITemplateTypeParameter(name: "_Tp", type: !68)
!127 = !DISubprogram(name: "allocator", scope: !71, file: !72, line: 163, type: !128, scopeLine: 163, flags: DIFlagPublic | DIFlagPrototyped, spFlags: 0)
!128 = !DISubroutineType(types: !129)
!129 = !{null, !130}
!130 = !DIDerivedType(tag: DW_TAG_pointer_type, baseType: !71, size: 64, flags: DIFlagArtificial | DIFlagObjectPointer)
!131 = !DISubprogram(name: "allocator", scope: !71, file: !72, line: 167, type: !132, scopeLine: 167, flags: DIFlagPublic | DIFlagPrototyped, spFlags: 0)
!132 = !DISubroutineType(types: !133)
!133 = !{null, !130, !134}
!134 = !DIDerivedType(tag: DW_TAG_reference_type, baseType: !135, size: 64)
!135 = !DIDerivedType(tag: DW_TAG_const_type, baseType: !71)
!136 = !DISubprogram(name: "operator=", linkageName: "_ZNSaIiEaSERKS_", scope: !71, file: !72, line: 172, type: !137, scopeLine: 172, flags: DIFlagPublic | DIFlagPrototyped, spFlags: 0)
!137 = !DISubroutineType(types: !138)
!138 = !{!139, !130, !134}
!139 = !DIDerivedType(tag: DW_TAG_reference_type, baseType: !71, size: 64)
!140 = !DISubprogram(name: "~allocator", scope: !71, file: !72, line: 184, type: !128, scopeLine: 184, flags: DIFlagPublic | DIFlagPrototyped, spFlags: 0)
!141 = !DIDerivedType(tag: DW_TAG_typedef, name: "size_type", file: !61, line: 452, baseType: !113)
!142 = !DISubprogram(name: "allocate", linkageName: "_ZNSt16allocator_traitsISaIiEE8allocateERS0_mPKv", scope: !60, file: !61, line: 496, type: !143, scopeLine: 496, flags: DIFlagPrototyped | DIFlagStaticMember, spFlags: 0)
!143 = !DISubroutineType(types: !144)
!144 = !{!66, !69, !141, !145}
!145 = !DIDerivedType(tag: DW_TAG_typedef, name: "const_void_pointer", file: !61, line: 446, baseType: !116)
!146 = !DISubprogram(name: "deallocate", linkageName: "_ZNSt16allocator_traitsISaIiEE10deallocateERS0_Pim", scope: !60, file: !61, line: 516, type: !147, scopeLine: 516, flags: DIFlagPrototyped | DIFlagStaticMember, spFlags: 0)
!147 = !DISubroutineType(types: !148)
!148 = !{null, !69, !66, !141}
!149 = !DISubprogram(name: "max_size", linkageName: "_ZNSt16allocator_traitsISaIiEE8max_sizeERKS0_", scope: !60, file: !61, line: 571, type: !150, scopeLine: 571, flags: DIFlagPrototyped | DIFlagStaticMember, spFlags: 0)
!150 = !DISubroutineType(types: !151)
!151 = !{!152, !153}
!152 = !DIDerivedType(tag: DW_TAG_typedef, name: "size_type", scope: !60, file: !61, line: 452, baseType: !113)
!153 = !DIDerivedType(tag: DW_TAG_reference_type, baseType: !154, size: 64)
!154 = !DIDerivedType(tag: DW_TAG_const_type, baseType: !70)
!155 = !DISubprogram(name: "select_on_container_copy_construction", linkageName: "_ZNSt16allocator_traitsISaIiEE37select_on_container_copy_constructionERKS0_", scope: !60, file: !61, line: 587, type: !156, scopeLine: 587, flags: DIFlagPrototyped | DIFlagStaticMember, spFlags: 0)
!156 = !DISubroutineType(types: !157)
!157 = !{!70, !153}
!158 = !{!159}
!159 = !DITemplateTypeParameter(name: "_Alloc", type: !71)
!160 = !DISubprogram(name: "_S_select_on_copy", linkageName: "_ZN9__gnu_cxx14__alloc_traitsISaIiEiE17_S_select_on_copyERKS1_", scope: !56, file: !54, line: 97, type: !161, scopeLine: 97, flags: DIFlagPrototyped | DIFlagStaticMember, spFlags: 0)
!161 = !DISubroutineType(types: !162)
!162 = !{!71, !134}
!163 = !DISubprogram(name: "_S_on_swap", linkageName: "_ZN9__gnu_cxx14__alloc_traitsISaIiEiE10_S_on_swapERS1_S3_", scope: !56, file: !54, line: 101, type: !164, scopeLine: 101, flags: DIFlagPrototyped | DIFlagStaticMember, spFlags: 0)
!164 = !DISubroutineType(types: !165)
!165 = !{null, !139, !139}
!166 = !DISubprogram(name: "_S_propagate_on_copy_assign", linkageName: "_ZN9__gnu_cxx14__alloc_traitsISaIiEiE27_S_propagate_on_copy_assignEv", scope: !56, file: !54, line: 105, type: !167, scopeLine: 105, flags: DIFlagPrototyped | DIFlagStaticMember, spFlags: 0)
!167 = !DISubroutineType(types: !168)
!168 = !{!169}
!169 = !DIBasicType(name: "bool", size: 8, encoding: DW_ATE_boolean)
!170 = !DISubprogram(name: "_S_propagate_on_move_assign", linkageName: "_ZN9__gnu_cxx14__alloc_traitsISaIiEiE27_S_propagate_on_move_assignEv", scope: !56, file: !54, line: 109, type: !167, scopeLine: 109, flags: DIFlagPrototyped | DIFlagStaticMember, spFlags: 0)
!171 = !DISubprogram(name: "_S_propagate_on_swap", linkageName: "_ZN9__gnu_cxx14__alloc_traitsISaIiEiE20_S_propagate_on_swapEv", scope: !56, file: !54, line: 113, type: !167, scopeLine: 113, flags: DIFlagPrototyped | DIFlagStaticMember, spFlags: 0)
!172 = !DISubprogram(name: "_S_always_equal", linkageName: "_ZN9__gnu_cxx14__alloc_traitsISaIiEiE15_S_always_equalEv", scope: !56, file: !54, line: 117, type: !167, scopeLine: 117, flags: DIFlagPrototyped | DIFlagStaticMember, spFlags: 0)
!173 = !DISubprogram(name: "_S_nothrow_move", linkageName: "_ZN9__gnu_cxx14__alloc_traitsISaIiEiE15_S_nothrow_moveEv", scope: !56, file: !54, line: 121, type: !167, scopeLine: 121, flags: DIFlagPrototyped | DIFlagStaticMember, spFlags: 0)
!174 = !{!159, !175}
!175 = !DITemplateTypeParameter(type: !68, defaulted: true)
!176 = !{}
!177 = !DIDerivedType(tag: DW_TAG_typedef, name: "rebind_alloc<int>", scope: !60, file: !61, line: 467, baseType: !71)
!178 = !DIDerivedType(tag: DW_TAG_inheritance, scope: !49, baseType: !179, extraData: i32 0)
!179 = distinct !DICompositeType(tag: DW_TAG_structure_type, name: "_Vector_impl_data", scope: !46, file: !35, line: 92, size: 192, flags: DIFlagTypePassByReference | DIFlagNonTrivial, elements: !180, identifier: "_ZTSNSt12_Vector_baseIiSaIiEE17_Vector_impl_dataE")
!180 = !{!181, !184, !185, !186, !190, !194, !199}
!181 = !DIDerivedType(tag: DW_TAG_member, name: "_M_start", scope: !179, file: !35, line: 94, baseType: !182, size: 64)
!182 = !DIDerivedType(tag: DW_TAG_typedef, name: "pointer", scope: !46, file: !35, line: 90, baseType: !183)
!183 = !DIDerivedType(tag: DW_TAG_typedef, name: "pointer", scope: !56, file: !54, line: 54, baseType: !66)
!184 = !DIDerivedType(tag: DW_TAG_member, name: "_M_finish", scope: !179, file: !35, line: 95, baseType: !182, size: 64, offset: 64)
!185 = !DIDerivedType(tag: DW_TAG_member, name: "_M_end_of_storage", scope: !179, file: !35, line: 96, baseType: !182, size: 64, offset: 128)
!186 = !DISubprogram(name: "_Vector_impl_data", scope: !179, file: !35, line: 99, type: !187, scopeLine: 99, flags: DIFlagPrototyped, spFlags: 0)
!187 = !DISubroutineType(types: !188)
!188 = !{null, !189}
!189 = !DIDerivedType(tag: DW_TAG_pointer_type, baseType: !179, size: 64, flags: DIFlagArtificial | DIFlagObjectPointer)
!190 = !DISubprogram(name: "_Vector_impl_data", scope: !179, file: !35, line: 105, type: !191, scopeLine: 105, flags: DIFlagPrototyped, spFlags: 0)
!191 = !DISubroutineType(types: !192)
!192 = !{null, !189, !193}
!193 = !DIDerivedType(tag: DW_TAG_rvalue_reference_type, baseType: !179, size: 64)
!194 = !DISubprogram(name: "_M_copy_data", linkageName: "_ZNSt12_Vector_baseIiSaIiEE17_Vector_impl_data12_M_copy_dataERKS2_", scope: !179, file: !35, line: 113, type: !195, scopeLine: 113, flags: DIFlagPrototyped, spFlags: 0)
!195 = !DISubroutineType(types: !196)
!196 = !{null, !189, !197}
!197 = !DIDerivedType(tag: DW_TAG_reference_type, baseType: !198, size: 64)
!198 = !DIDerivedType(tag: DW_TAG_const_type, baseType: !179)
!199 = !DISubprogram(name: "_M_swap_data", linkageName: "_ZNSt12_Vector_baseIiSaIiEE17_Vector_impl_data12_M_swap_dataERS2_", scope: !179, file: !35, line: 122, type: !200, scopeLine: 122, flags: DIFlagPrototyped, spFlags: 0)
!200 = !DISubroutineType(types: !201)
!201 = !{null, !189, !202}
!202 = !DIDerivedType(tag: DW_TAG_reference_type, baseType: !179, size: 64)
!203 = !DISubprogram(name: "_Vector_impl", scope: !49, file: !35, line: 137, type: !204, scopeLine: 137, flags: DIFlagPrototyped, spFlags: 0)
!204 = !DISubroutineType(types: !205)
!205 = !{null, !206}
!206 = !DIDerivedType(tag: DW_TAG_pointer_type, baseType: !49, size: 64, flags: DIFlagArtificial | DIFlagObjectPointer)
!207 = !DISubprogram(name: "_Vector_impl", scope: !49, file: !35, line: 146, type: !208, scopeLine: 146, flags: DIFlagPrototyped, spFlags: 0)
!208 = !DISubroutineType(types: !209)
!209 = !{null, !206, !210}
!210 = !DIDerivedType(tag: DW_TAG_reference_type, baseType: !211, size: 64)
!211 = !DIDerivedType(tag: DW_TAG_const_type, baseType: !52)
!212 = !DISubprogram(name: "_Vector_impl", scope: !49, file: !35, line: 154, type: !213, scopeLine: 154, flags: DIFlagPrototyped, spFlags: 0)
!213 = !DISubroutineType(types: !214)
!214 = !{null, !206, !215}
!215 = !DIDerivedType(tag: DW_TAG_rvalue_reference_type, baseType: !49, size: 64)
!216 = !DISubprogram(name: "_Vector_impl", scope: !49, file: !35, line: 159, type: !217, scopeLine: 159, flags: DIFlagPrototyped, spFlags: 0)
!217 = !DISubroutineType(types: !218)
!218 = !{null, !206, !219}
!219 = !DIDerivedType(tag: DW_TAG_rvalue_reference_type, baseType: !52, size: 64)
!220 = !DISubprogram(name: "_Vector_impl", scope: !49, file: !35, line: 164, type: !221, scopeLine: 164, flags: DIFlagPrototyped, spFlags: 0)
!221 = !DISubroutineType(types: !222)
!222 = !{null, !206, !219, !215}
!223 = !DISubprogram(name: "_M_get_Tp_allocator", linkageName: "_ZNSt12_Vector_baseIiSaIiEE19_M_get_Tp_allocatorEv", scope: !46, file: !35, line: 301, type: !224, scopeLine: 301, flags: DIFlagPrototyped, spFlags: 0)
!224 = !DISubroutineType(types: !225)
!225 = !{!226, !227}
!226 = !DIDerivedType(tag: DW_TAG_reference_type, baseType: !52, size: 64)
!227 = !DIDerivedType(tag: DW_TAG_pointer_type, baseType: !46, size: 64, flags: DIFlagArtificial | DIFlagObjectPointer)
!228 = !DISubprogram(name: "_M_get_Tp_allocator", linkageName: "_ZNKSt12_Vector_baseIiSaIiEE19_M_get_Tp_allocatorEv", scope: !46, file: !35, line: 306, type: !229, scopeLine: 306, flags: DIFlagPrototyped, spFlags: 0)
!229 = !DISubroutineType(types: !230)
!230 = !{!210, !231}
!231 = !DIDerivedType(tag: DW_TAG_pointer_type, baseType: !232, size: 64, flags: DIFlagArtificial | DIFlagObjectPointer)
!232 = !DIDerivedType(tag: DW_TAG_const_type, baseType: !46)
!233 = !DISubprogram(name: "get_allocator", linkageName: "_ZNKSt12_Vector_baseIiSaIiEE13get_allocatorEv", scope: !46, file: !35, line: 311, type: !234, scopeLine: 311, flags: DIFlagPrototyped, spFlags: 0)
!234 = !DISubroutineType(types: !235)
!235 = !{!236, !231}
!236 = !DIDerivedType(tag: DW_TAG_typedef, name: "allocator_type", scope: !46, file: !35, line: 297, baseType: !71)
!237 = !DISubprogram(name: "_Vector_base", scope: !46, file: !35, line: 315, type: !238, scopeLine: 315, flags: DIFlagPrototyped, spFlags: 0)
!238 = !DISubroutineType(types: !239)
!239 = !{null, !227}
!240 = !DISubprogram(name: "_Vector_base", scope: !46, file: !35, line: 321, type: !241, scopeLine: 321, flags: DIFlagPrototyped, spFlags: 0)
!241 = !DISubroutineType(types: !242)
!242 = !{null, !227, !243}
!243 = !DIDerivedType(tag: DW_TAG_reference_type, baseType: !244, size: 64)
!244 = !DIDerivedType(tag: DW_TAG_const_type, baseType: !236)
!245 = !DISubprogram(name: "_Vector_base", scope: !46, file: !35, line: 327, type: !246, scopeLine: 327, flags: DIFlagPrototyped, spFlags: 0)
!246 = !DISubroutineType(types: !247)
!247 = !{null, !227, !113}
!248 = !DISubprogram(name: "_Vector_base", scope: !46, file: !35, line: 333, type: !249, scopeLine: 333, flags: DIFlagPrototyped, spFlags: 0)
!249 = !DISubroutineType(types: !250)
!250 = !{null, !227, !113, !243}
!251 = !DISubprogram(name: "_Vector_base", scope: !46, file: !35, line: 338, type: !252, scopeLine: 338, flags: DIFlagPrototyped, spFlags: 0)
!252 = !DISubroutineType(types: !253)
!253 = !{null, !227, !254}
!254 = !DIDerivedType(tag: DW_TAG_rvalue_reference_type, baseType: !46, size: 64)
!255 = !DISubprogram(name: "_Vector_base", scope: !46, file: !35, line: 343, type: !256, scopeLine: 343, flags: DIFlagPrototyped, spFlags: 0)
!256 = !DISubroutineType(types: !257)
!257 = !{null, !227, !219}
!258 = !DISubprogram(name: "_Vector_base", scope: !46, file: !35, line: 347, type: !259, scopeLine: 347, flags: DIFlagPrototyped, spFlags: 0)
!259 = !DISubroutineType(types: !260)
!260 = !{null, !227, !254, !243}
!261 = !DISubprogram(name: "_Vector_base", scope: !46, file: !35, line: 361, type: !262, scopeLine: 361, flags: DIFlagPrototyped, spFlags: 0)
!262 = !DISubroutineType(types: !263)
!263 = !{null, !227, !243, !254}
!264 = !DISubprogram(name: "~_Vector_base", scope: !46, file: !35, line: 367, type: !238, scopeLine: 367, flags: DIFlagPrototyped, spFlags: 0)
!265 = !DISubprogram(name: "_M_allocate", linkageName: "_ZNSt12_Vector_baseIiSaIiEE11_M_allocateEm", scope: !46, file: !35, line: 378, type: !266, scopeLine: 378, flags: DIFlagPrototyped, spFlags: 0)
!266 = !DISubroutineType(types: !267)
!267 = !{!182, !227, !113}
!268 = !DISubprogram(name: "_M_deallocate", linkageName: "_ZNSt12_Vector_baseIiSaIiEE13_M_deallocateEPim", scope: !46, file: !35, line: 386, type: !269, scopeLine: 386, flags: DIFlagPrototyped, spFlags: 0)
!269 = !DISubroutineType(types: !270)
!270 = !{null, !227, !182, !113}
!271 = !DISubprogram(name: "_M_create_storage", linkageName: "_ZNSt12_Vector_baseIiSaIiEE17_M_create_storageEm", scope: !46, file: !35, line: 396, type: !246, scopeLine: 396, flags: DIFlagProtected | DIFlagPrototyped, spFlags: 0)
!272 = !{!126, !159}
!273 = !DISubprogram(name: "_S_nothrow_relocate", linkageName: "_ZNSt6vectorIiSaIiEE19_S_nothrow_relocateESt17integral_constantIbLb1EE", scope: !42, file: !35, line: 470, type: !274, scopeLine: 470, flags: DIFlagPrototyped | DIFlagStaticMember, spFlags: 0)
!274 = !DISubroutineType(types: !275)
!275 = !{!169, !276}
!276 = !DIDerivedType(tag: DW_TAG_typedef, name: "true_type", scope: !43, file: !277, line: 82, baseType: !278)
!277 = !DIFile(filename: "/usr/lib/gcc/x86_64-linux-gnu/13/../../../../include/c++/13/type_traits", directory: "")
!278 = distinct !DICompositeType(tag: DW_TAG_structure_type, name: "integral_constant<bool, true>", scope: !43, file: !277, line: 62, size: 8, flags: DIFlagTypePassByValue, elements: !279, templateParams: !289, identifier: "_ZTSSt17integral_constantIbLb1EE")
!279 = !{!280, !282, !288}
!280 = !DIDerivedType(tag: DW_TAG_variable, name: "value", scope: !278, file: !277, line: 64, baseType: !281, flags: DIFlagStaticMember, extraData: i1 true)
!281 = !DIDerivedType(tag: DW_TAG_const_type, baseType: !169)
!282 = !DISubprogram(name: "operator bool", linkageName: "_ZNKSt17integral_constantIbLb1EEcvbEv", scope: !278, file: !277, line: 67, type: !283, scopeLine: 67, flags: DIFlagPrototyped, spFlags: 0)
!283 = !DISubroutineType(types: !284)
!284 = !{!285, !286}
!285 = !DIDerivedType(tag: DW_TAG_typedef, name: "value_type", scope: !278, file: !277, line: 65, baseType: !169)
!286 = !DIDerivedType(tag: DW_TAG_pointer_type, baseType: !287, size: 64, flags: DIFlagArtificial | DIFlagObjectPointer)
!287 = !DIDerivedType(tag: DW_TAG_const_type, baseType: !278)
!288 = !DISubprogram(name: "operator()", linkageName: "_ZNKSt17integral_constantIbLb1EEclEv", scope: !278, file: !277, line: 72, type: !283, scopeLine: 72, flags: DIFlagPrototyped, spFlags: 0)
!289 = !{!290, !291}
!290 = !DITemplateTypeParameter(name: "_Tp", type: !169)
!291 = !DITemplateValueParameter(name: "__v", type: !169, value: i1 true)
!292 = !DISubprogram(name: "_S_nothrow_relocate", linkageName: "_ZNSt6vectorIiSaIiEE19_S_nothrow_relocateESt17integral_constantIbLb0EE", scope: !42, file: !35, line: 479, type: !293, scopeLine: 479, flags: DIFlagPrototyped | DIFlagStaticMember, spFlags: 0)
!293 = !DISubroutineType(types: !294)
!294 = !{!169, !295}
!295 = !DIDerivedType(tag: DW_TAG_typedef, name: "false_type", scope: !43, file: !277, line: 85, baseType: !296)
!296 = distinct !DICompositeType(tag: DW_TAG_structure_type, name: "integral_constant<bool, false>", scope: !43, file: !277, line: 62, size: 8, flags: DIFlagTypePassByValue, elements: !297, templateParams: !306, identifier: "_ZTSSt17integral_constantIbLb0EE")
!297 = !{!298, !299, !305}
!298 = !DIDerivedType(tag: DW_TAG_variable, name: "value", scope: !296, file: !277, line: 64, baseType: !281, flags: DIFlagStaticMember, extraData: i1 false)
!299 = !DISubprogram(name: "operator bool", linkageName: "_ZNKSt17integral_constantIbLb0EEcvbEv", scope: !296, file: !277, line: 67, type: !300, scopeLine: 67, flags: DIFlagPrototyped, spFlags: 0)
!300 = !DISubroutineType(types: !301)
!301 = !{!302, !303}
!302 = !DIDerivedType(tag: DW_TAG_typedef, name: "value_type", scope: !296, file: !277, line: 65, baseType: !169)
!303 = !DIDerivedType(tag: DW_TAG_pointer_type, baseType: !304, size: 64, flags: DIFlagArtificial | DIFlagObjectPointer)
!304 = !DIDerivedType(tag: DW_TAG_const_type, baseType: !296)
!305 = !DISubprogram(name: "operator()", linkageName: "_ZNKSt17integral_constantIbLb0EEclEv", scope: !296, file: !277, line: 72, type: !300, scopeLine: 72, flags: DIFlagPrototyped, spFlags: 0)
!306 = !{!290, !307}
!307 = !DITemplateValueParameter(name: "__v", type: !169, value: i1 false)
!308 = !DISubprogram(name: "_S_use_relocate", linkageName: "_ZNSt6vectorIiSaIiEE15_S_use_relocateEv", scope: !42, file: !35, line: 483, type: !167, scopeLine: 483, flags: DIFlagPrototyped | DIFlagStaticMember, spFlags: 0)
!309 = !DISubprogram(name: "_S_do_relocate", linkageName: "_ZNSt6vectorIiSaIiEE14_S_do_relocateEPiS2_S2_RS0_St17integral_constantIbLb1EE", scope: !42, file: !35, line: 492, type: !310, scopeLine: 492, flags: DIFlagPrototyped | DIFlagStaticMember, spFlags: 0)
!310 = !DISubroutineType(types: !311)
!311 = !{!312, !312, !312, !312, !313, !276}
!312 = !DIDerivedType(tag: DW_TAG_typedef, name: "pointer", scope: !42, file: !35, line: 454, baseType: !182, flags: DIFlagPublic)
!313 = !DIDerivedType(tag: DW_TAG_reference_type, baseType: !41, size: 64)
!314 = !DISubprogram(name: "_S_do_relocate", linkageName: "_ZNSt6vectorIiSaIiEE14_S_do_relocateEPiS2_S2_RS0_St17integral_constantIbLb0EE", scope: !42, file: !35, line: 499, type: !315, scopeLine: 499, flags: DIFlagPrototyped | DIFlagStaticMember, spFlags: 0)
!315 = !DISubroutineType(types: !316)
!316 = !{!312, !312, !312, !312, !313, !295}
!317 = !DISubprogram(name: "_S_relocate", linkageName: "_ZNSt6vectorIiSaIiEE11_S_relocateEPiS2_S2_RS0_", scope: !42, file: !35, line: 504, type: !318, scopeLine: 504, flags: DIFlagPrototyped | DIFlagStaticMember, spFlags: 0)
!318 = !DISubroutineType(types: !319)
!319 = !{!312, !312, !312, !312, !313}
!320 = !DISubprogram(name: "vector", scope: !42, file: !35, line: 531, type: !321, scopeLine: 531, flags: DIFlagPublic | DIFlagPrototyped, spFlags: 0)
!321 = !DISubroutineType(types: !322)
!322 = !{null, !323}
!323 = !DIDerivedType(tag: DW_TAG_pointer_type, baseType: !42, size: 64, flags: DIFlagArtificial | DIFlagObjectPointer)
!324 = !DISubprogram(name: "vector", scope: !42, file: !35, line: 542, type: !325, scopeLine: 542, flags: DIFlagPublic | DIFlagExplicit | DIFlagPrototyped, spFlags: 0)
!325 = !DISubroutineType(types: !326)
!326 = !{null, !323, !327}
!327 = !DIDerivedType(tag: DW_TAG_reference_type, baseType: !328, size: 64)
!328 = !DIDerivedType(tag: DW_TAG_const_type, baseType: !329)
!329 = !DIDerivedType(tag: DW_TAG_typedef, name: "allocator_type", scope: !42, file: !35, line: 465, baseType: !71, flags: DIFlagPublic)
!330 = !DISubprogram(name: "vector", scope: !42, file: !35, line: 556, type: !331, scopeLine: 556, flags: DIFlagPublic | DIFlagExplicit | DIFlagPrototyped, spFlags: 0)
!331 = !DISubroutineType(types: !332)
!332 = !{null, !323, !333, !327}
!333 = !DIDerivedType(tag: DW_TAG_typedef, name: "size_type", file: !35, line: 463, baseType: !113, flags: DIFlagPublic)
!334 = !DISubprogram(name: "vector", scope: !42, file: !35, line: 569, type: !335, scopeLine: 569, flags: DIFlagPublic | DIFlagPrototyped, spFlags: 0)
!335 = !DISubroutineType(types: !336)
!336 = !{null, !323, !333, !337, !327}
!337 = !DIDerivedType(tag: DW_TAG_reference_type, baseType: !338, size: 64)
!338 = !DIDerivedType(tag: DW_TAG_const_type, baseType: !339)
!339 = !DIDerivedType(tag: DW_TAG_typedef, name: "value_type", scope: !42, file: !35, line: 453, baseType: !68, flags: DIFlagPublic)
!340 = !DISubprogram(name: "vector", scope: !42, file: !35, line: 601, type: !341, scopeLine: 601, flags: DIFlagPublic | DIFlagPrototyped, spFlags: 0)
!341 = !DISubroutineType(types: !342)
!342 = !{null, !323, !343}
!343 = !DIDerivedType(tag: DW_TAG_reference_type, baseType: !344, size: 64)
!344 = !DIDerivedType(tag: DW_TAG_const_type, baseType: !42)
!345 = !DISubprogram(name: "vector", scope: !42, file: !35, line: 620, type: !346, scopeLine: 620, flags: DIFlagPublic | DIFlagPrototyped, spFlags: 0)
!346 = !DISubroutineType(types: !347)
!347 = !{null, !323, !348}
!348 = !DIDerivedType(tag: DW_TAG_rvalue_reference_type, baseType: !42, size: 64)
!349 = !DISubprogram(name: "vector", scope: !42, file: !35, line: 624, type: !350, scopeLine: 624, flags: DIFlagPublic | DIFlagPrototyped, spFlags: 0)
!350 = !DISubroutineType(types: !351)
!351 = !{null, !323, !343, !352}
!352 = !DIDerivedType(tag: DW_TAG_reference_type, baseType: !353, size: 64)
!353 = !DIDerivedType(tag: DW_TAG_const_type, baseType: !354)
!354 = !DIDerivedType(tag: DW_TAG_typedef, name: "__type_identity_t<std::allocator<int> >", scope: !43, file: !277, line: 143, baseType: !355)
!355 = !DIDerivedType(tag: DW_TAG_typedef, name: "type", scope: !356, file: !277, line: 140, baseType: !71)
!356 = distinct !DICompositeType(tag: DW_TAG_structure_type, name: "__type_identity<std::allocator<int> >", scope: !43, file: !277, line: 139, size: 8, flags: DIFlagTypePassByValue, elements: !176, templateParams: !357, identifier: "_ZTSSt15__type_identityISaIiEE")
!357 = !{!358}
!358 = !DITemplateTypeParameter(name: "_Type", type: !71)
!359 = !DISubprogram(name: "vector", scope: !42, file: !35, line: 635, type: !360, scopeLine: 635, flags: DIFlagPrototyped, spFlags: 0)
!360 = !DISubroutineType(types: !361)
!361 = !{null, !323, !348, !327, !276}
!362 = !DISubprogram(name: "vector", scope: !42, file: !35, line: 640, type: !363, scopeLine: 640, flags: DIFlagPrototyped, spFlags: 0)
!363 = !DISubroutineType(types: !364)
!364 = !{null, !323, !348, !327, !295}
!365 = !DISubprogram(name: "vector", scope: !42, file: !35, line: 659, type: !366, scopeLine: 659, flags: DIFlagPublic | DIFlagPrototyped, spFlags: 0)
!366 = !DISubroutineType(types: !367)
!367 = !{null, !323, !348, !352}
!368 = !DISubprogram(name: "vector", scope: !42, file: !35, line: 678, type: !369, scopeLine: 678, flags: DIFlagPublic | DIFlagPrototyped, spFlags: 0)
!369 = !DISubroutineType(types: !370)
!370 = !{null, !323, !371, !327}
!371 = !DICompositeType(tag: DW_TAG_class_type, name: "initializer_list<int>", scope: !43, file: !372, line: 45, size: 128, flags: DIFlagFwdDecl | DIFlagNonTrivial, identifier: "_ZTSSt16initializer_listIiE")
!372 = !DIFile(filename: "/usr/lib/gcc/x86_64-linux-gnu/13/../../../../include/c++/13/initializer_list", directory: "")
!373 = !DISubprogram(name: "~vector", scope: !42, file: !35, line: 733, type: !321, scopeLine: 733, flags: DIFlagPublic | DIFlagPrototyped, spFlags: 0)
!374 = !DISubprogram(name: "operator=", linkageName: "_ZNSt6vectorIiSaIiEEaSERKS1_", scope: !42, file: !35, line: 751, type: !375, scopeLine: 751, flags: DIFlagPublic | DIFlagPrototyped, spFlags: 0)
!375 = !DISubroutineType(types: !376)
!376 = !{!377, !323, !343}
!377 = !DIDerivedType(tag: DW_TAG_reference_type, baseType: !42, size: 64)
!378 = !DISubprogram(name: "operator=", linkageName: "_ZNSt6vectorIiSaIiEEaSEOS1_", scope: !42, file: !35, line: 766, type: !379, scopeLine: 766, flags: DIFlagPublic | DIFlagPrototyped, spFlags: 0)
!379 = !DISubroutineType(types: !380)
!380 = !{!377, !323, !348}
!381 = !DISubprogram(name: "operator=", linkageName: "_ZNSt6vectorIiSaIiEEaSESt16initializer_listIiE", scope: !42, file: !35, line: 788, type: !382, scopeLine: 788, flags: DIFlagPublic | DIFlagPrototyped, spFlags: 0)
!382 = !DISubroutineType(types: !383)
!383 = !{!377, !323, !371}
!384 = !DISubprogram(name: "assign", linkageName: "_ZNSt6vectorIiSaIiEE6assignEmRKi", scope: !42, file: !35, line: 808, type: !385, scopeLine: 808, flags: DIFlagPublic | DIFlagPrototyped, spFlags: 0)
!385 = !DISubroutineType(types: !386)
!386 = !{null, !323, !333, !337}
!387 = !DISubprogram(name: "assign", linkageName: "_ZNSt6vectorIiSaIiEE6assignESt16initializer_listIiE", scope: !42, file: !35, line: 855, type: !388, scopeLine: 855, flags: DIFlagPublic | DIFlagPrototyped, spFlags: 0)
!388 = !DISubroutineType(types: !389)
!389 = !{null, !323, !371}
!390 = !DISubprogram(name: "begin", linkageName: "_ZNSt6vectorIiSaIiEE5beginEv", scope: !42, file: !35, line: 873, type: !391, scopeLine: 873, flags: DIFlagPublic | DIFlagPrototyped, spFlags: 0)
!391 = !DISubroutineType(types: !392)
!392 = !{!393, !323}
!393 = !DIDerivedType(tag: DW_TAG_typedef, name: "iterator", scope: !42, file: !35, line: 458, baseType: !394, flags: DIFlagPublic)
!394 = !DICompositeType(tag: DW_TAG_class_type, name: "__normal_iterator<int *, std::vector<int, std::allocator<int> > >", scope: !57, file: !395, line: 1047, flags: DIFlagFwdDecl | DIFlagNonTrivial, identifier: "_ZTSN9__gnu_cxx17__normal_iteratorIPiSt6vectorIiSaIiEEEE")
!395 = !DIFile(filename: "/usr/lib/gcc/x86_64-linux-gnu/13/../../../../include/c++/13/bits/stl_iterator.h", directory: "", checksumkind: CSK_MD5, checksum: "078d2c6e40695db2f690aeaa2795d719")
!396 = !DISubprogram(name: "begin", linkageName: "_ZNKSt6vectorIiSaIiEE5beginEv", scope: !42, file: !35, line: 883, type: !397, scopeLine: 883, flags: DIFlagPublic | DIFlagPrototyped, spFlags: 0)
!397 = !DISubroutineType(types: !398)
!398 = !{!399, !401}
!399 = !DIDerivedType(tag: DW_TAG_typedef, name: "const_iterator", scope: !42, file: !35, line: 460, baseType: !400, flags: DIFlagPublic)
!400 = !DICompositeType(tag: DW_TAG_class_type, name: "__normal_iterator<const int *, std::vector<int, std::allocator<int> > >", scope: !57, file: !395, line: 1047, flags: DIFlagFwdDecl | DIFlagNonTrivial, identifier: "_ZTSN9__gnu_cxx17__normal_iteratorIPKiSt6vectorIiSaIiEEEE")
!401 = !DIDerivedType(tag: DW_TAG_pointer_type, baseType: !344, size: 64, flags: DIFlagArtificial | DIFlagObjectPointer)
!402 = !DISubprogram(name: "end", linkageName: "_ZNSt6vectorIiSaIiEE3endEv", scope: !42, file: !35, line: 893, type: !391, scopeLine: 893, flags: DIFlagPublic | DIFlagPrototyped, spFlags: 0)
!403 = !DISubprogram(name: "end", linkageName: "_ZNKSt6vectorIiSaIiEE3endEv", scope: !42, file: !35, line: 903, type: !397, scopeLine: 903, flags: DIFlagPublic | DIFlagPrototyped, spFlags: 0)
!404 = !DISubprogram(name: "rbegin", linkageName: "_ZNSt6vectorIiSaIiEE6rbeginEv", scope: !42, file: !35, line: 913, type: !405, scopeLine: 913, flags: DIFlagPublic | DIFlagPrototyped, spFlags: 0)
!405 = !DISubroutineType(types: !406)
!406 = !{!407, !323}
!407 = !DIDerivedType(tag: DW_TAG_typedef, name: "reverse_iterator", scope: !42, file: !35, line: 462, baseType: !408, flags: DIFlagPublic)
!408 = !DICompositeType(tag: DW_TAG_class_type, name: "reverse_iterator<__gnu_cxx::__normal_iterator<int *, std::vector<int, std::allocator<int> > > >", scope: !43, file: !395, line: 136, flags: DIFlagFwdDecl | DIFlagNonTrivial, identifier: "_ZTSSt16reverse_iteratorIN9__gnu_cxx17__normal_iteratorIPiSt6vectorIiSaIiEEEEE")
!409 = !DISubprogram(name: "rbegin", linkageName: "_ZNKSt6vectorIiSaIiEE6rbeginEv", scope: !42, file: !35, line: 923, type: !410, scopeLine: 923, flags: DIFlagPublic | DIFlagPrototyped, spFlags: 0)
!410 = !DISubroutineType(types: !411)
!411 = !{!412, !401}
!412 = !DIDerivedType(tag: DW_TAG_typedef, name: "const_reverse_iterator", scope: !42, file: !35, line: 461, baseType: !413, flags: DIFlagPublic)
!413 = !DICompositeType(tag: DW_TAG_class_type, name: "reverse_iterator<__gnu_cxx::__normal_iterator<const int *, std::vector<int, std::allocator<int> > > >", scope: !43, file: !395, line: 136, flags: DIFlagFwdDecl | DIFlagNonTrivial, identifier: "_ZTSSt16reverse_iteratorIN9__gnu_cxx17__normal_iteratorIPKiSt6vectorIiSaIiEEEEE")
!414 = !DISubprogram(name: "rend", linkageName: "_ZNSt6vectorIiSaIiEE4rendEv", scope: !42, file: !35, line: 933, type: !405, scopeLine: 933, flags: DIFlagPublic | DIFlagPrototyped, spFlags: 0)
!415 = !DISubprogram(name: "rend", linkageName: "_ZNKSt6vectorIiSaIiEE4rendEv", scope: !42, file: !35, line: 943, type: !410, scopeLine: 943, flags: DIFlagPublic | DIFlagPrototyped, spFlags: 0)
!416 = !DISubprogram(name: "cbegin", linkageName: "_ZNKSt6vectorIiSaIiEE6cbeginEv", scope: !42, file: !35, line: 954, type: !397, scopeLine: 954, flags: DIFlagPublic | DIFlagPrototyped, spFlags: 0)
!417 = !DISubprogram(name: "cend", linkageName: "_ZNKSt6vectorIiSaIiEE4cendEv", scope: !42, file: !35, line: 964, type: !397, scopeLine: 964, flags: DIFlagPublic | DIFlagPrototyped, spFlags: 0)
!418 = !DISubprogram(name: "crbegin", linkageName: "_ZNKSt6vectorIiSaIiEE7crbeginEv", scope: !42, file: !35, line: 974, type: !410, scopeLine: 974, flags: DIFlagPublic | DIFlagPrototyped, spFlags: 0)
!419 = !DISubprogram(name: "crend", linkageName: "_ZNKSt6vectorIiSaIiEE5crendEv", scope: !42, file: !35, line: 984, type: !410, scopeLine: 984, flags: DIFlagPublic | DIFlagPrototyped, spFlags: 0)
!420 = !DISubprogram(name: "size", linkageName: "_ZNKSt6vectorIiSaIiEE4sizeEv", scope: !42, file: !35, line: 992, type: !421, scopeLine: 992, flags: DIFlagPublic | DIFlagPrototyped, spFlags: 0)
!421 = !DISubroutineType(types: !422)
!422 = !{!333, !401}
!423 = !DISubprogram(name: "max_size", linkageName: "_ZNKSt6vectorIiSaIiEE8max_sizeEv", scope: !42, file: !35, line: 998, type: !421, scopeLine: 998, flags: DIFlagPublic | DIFlagPrototyped, spFlags: 0)
!424 = !DISubprogram(name: "resize", linkageName: "_ZNSt6vectorIiSaIiEE6resizeEm", scope: !42, file: !35, line: 1013, type: !425, scopeLine: 1013, flags: DIFlagPublic | DIFlagPrototyped, spFlags: 0)
!425 = !DISubroutineType(types: !426)
!426 = !{null, !323, !333}
!427 = !DISubprogram(name: "resize", linkageName: "_ZNSt6vectorIiSaIiEE6resizeEmRKi", scope: !42, file: !35, line: 1034, type: !385, scopeLine: 1034, flags: DIFlagPublic | DIFlagPrototyped, spFlags: 0)
!428 = !DISubprogram(name: "shrink_to_fit", linkageName: "_ZNSt6vectorIiSaIiEE13shrink_to_fitEv", scope: !42, file: !35, line: 1068, type: !321, scopeLine: 1068, flags: DIFlagPublic | DIFlagPrototyped, spFlags: 0)
!429 = !DISubprogram(name: "capacity", linkageName: "_ZNKSt6vectorIiSaIiEE8capacityEv", scope: !42, file: !35, line: 1078, type: !421, scopeLine: 1078, flags: DIFlagPublic | DIFlagPrototyped, spFlags: 0)
!430 = !DISubprogram(name: "empty", linkageName: "_ZNKSt6vectorIiSaIiEE5emptyEv", scope: !42, file: !35, line: 1088, type: !431, scopeLine: 1088, flags: DIFlagPublic | DIFlagPrototyped, spFlags: 0)
!431 = !DISubroutineType(types: !432)
!432 = !{!169, !401}
!433 = !DISubprogram(name: "reserve", linkageName: "_ZNSt6vectorIiSaIiEE7reserveEm", scope: !42, file: !35, line: 1110, type: !425, scopeLine: 1110, flags: DIFlagPublic | DIFlagPrototyped, spFlags: 0)
!434 = !DISubprogram(name: "operator[]", linkageName: "_ZNSt6vectorIiSaIiEEixEm", scope: !42, file: !35, line: 1126, type: !435, scopeLine: 1126, flags: DIFlagPublic | DIFlagPrototyped, spFlags: 0)
!435 = !DISubroutineType(types: !436)
!436 = !{!437, !323, !333}
!437 = !DIDerivedType(tag: DW_TAG_typedef, name: "reference", scope: !42, file: !35, line: 456, baseType: !438, flags: DIFlagPublic)
!438 = !DIDerivedType(tag: DW_TAG_typedef, name: "reference", scope: !56, file: !54, line: 59, baseType: !439)
!439 = !DIDerivedType(tag: DW_TAG_reference_type, baseType: !440, size: 64)
!440 = !DIDerivedType(tag: DW_TAG_typedef, name: "value_type", scope: !56, file: !54, line: 53, baseType: !441)
!441 = !DIDerivedType(tag: DW_TAG_typedef, name: "value_type", scope: !60, file: !61, line: 434, baseType: !68)
!442 = !DISubprogram(name: "operator[]", linkageName: "_ZNKSt6vectorIiSaIiEEixEm", scope: !42, file: !35, line: 1145, type: !443, scopeLine: 1145, flags: DIFlagPublic | DIFlagPrototyped, spFlags: 0)
!443 = !DISubroutineType(types: !444)
!444 = !{!445, !401, !333}
!445 = !DIDerivedType(tag: DW_TAG_typedef, name: "const_reference", scope: !42, file: !35, line: 457, baseType: !446, flags: DIFlagPublic)
!446 = !DIDerivedType(tag: DW_TAG_typedef, name: "const_reference", scope: !56, file: !54, line: 60, baseType: !447)
!447 = !DIDerivedType(tag: DW_TAG_reference_type, baseType: !448, size: 64)
!448 = !DIDerivedType(tag: DW_TAG_const_type, baseType: !440)
!449 = !DISubprogram(name: "_M_range_check", linkageName: "_ZNKSt6vectorIiSaIiEE14_M_range_checkEm", scope: !42, file: !35, line: 1155, type: !450, scopeLine: 1155, flags: DIFlagProtected | DIFlagPrototyped, spFlags: 0)
!450 = !DISubroutineType(types: !451)
!451 = !{null, !401, !333}
!452 = !DISubprogram(name: "at", linkageName: "_ZNSt6vectorIiSaIiEE2atEm", scope: !42, file: !35, line: 1178, type: !435, scopeLine: 1178, flags: DIFlagPublic | DIFlagPrototyped, spFlags: 0)
!453 = !DISubprogram(name: "at", linkageName: "_ZNKSt6vectorIiSaIiEE2atEm", scope: !42, file: !35, line: 1197, type: !443, scopeLine: 1197, flags: DIFlagPublic | DIFlagPrototyped, spFlags: 0)
!454 = !DISubprogram(name: "front", linkageName: "_ZNSt6vectorIiSaIiEE5frontEv", scope: !42, file: !35, line: 1209, type: !455, scopeLine: 1209, flags: DIFlagPublic | DIFlagPrototyped, spFlags: 0)
!455 = !DISubroutineType(types: !456)
!456 = !{!437, !323}
!457 = !DISubprogram(name: "front", linkageName: "_ZNKSt6vectorIiSaIiEE5frontEv", scope: !42, file: !35, line: 1221, type: !458, scopeLine: 1221, flags: DIFlagPublic | DIFlagPrototyped, spFlags: 0)
!458 = !DISubroutineType(types: !459)
!459 = !{!445, !401}
!460 = !DISubprogram(name: "back", linkageName: "_ZNSt6vectorIiSaIiEE4backEv", scope: !42, file: !35, line: 1233, type: !455, scopeLine: 1233, flags: DIFlagPublic | DIFlagPrototyped, spFlags: 0)
!461 = !DISubprogram(name: "back", linkageName: "_ZNKSt6vectorIiSaIiEE4backEv", scope: !42, file: !35, line: 1245, type: !458, scopeLine: 1245, flags: DIFlagPublic | DIFlagPrototyped, spFlags: 0)
!462 = !DISubprogram(name: "data", linkageName: "_ZNSt6vectorIiSaIiEE4dataEv", scope: !42, file: !35, line: 1260, type: !463, scopeLine: 1260, flags: DIFlagPublic | DIFlagPrototyped, spFlags: 0)
!463 = !DISubroutineType(types: !464)
!464 = !{!67, !323}
!465 = !DISubprogram(name: "data", linkageName: "_ZNKSt6vectorIiSaIiEE4dataEv", scope: !42, file: !35, line: 1265, type: !466, scopeLine: 1265, flags: DIFlagPublic | DIFlagPrototyped, spFlags: 0)
!466 = !DISubroutineType(types: !467)
!467 = !{!105, !401}
!468 = !DISubprogram(name: "push_back", linkageName: "_ZNSt6vectorIiSaIiEE9push_backERKi", scope: !42, file: !35, line: 1281, type: !469, scopeLine: 1281, flags: DIFlagPublic | DIFlagPrototyped, spFlags: 0)
!469 = !DISubroutineType(types: !470)
!470 = !{null, !323, !337}
!471 = !DISubprogram(name: "push_back", linkageName: "_ZNSt6vectorIiSaIiEE9push_backEOi", scope: !42, file: !35, line: 1298, type: !472, scopeLine: 1298, flags: DIFlagPublic | DIFlagPrototyped, spFlags: 0)
!472 = !DISubroutineType(types: !473)
!473 = !{null, !323, !474}
!474 = !DIDerivedType(tag: DW_TAG_rvalue_reference_type, baseType: !339, size: 64)
!475 = !DISubprogram(name: "pop_back", linkageName: "_ZNSt6vectorIiSaIiEE8pop_backEv", scope: !42, file: !35, line: 1322, type: !321, scopeLine: 1322, flags: DIFlagPublic | DIFlagPrototyped, spFlags: 0)
!476 = !DISubprogram(name: "insert", linkageName: "_ZNSt6vectorIiSaIiEE6insertEN9__gnu_cxx17__normal_iteratorIPKiS1_EERS4_", scope: !42, file: !35, line: 1362, type: !477, scopeLine: 1362, flags: DIFlagPublic | DIFlagPrototyped, spFlags: 0)
!477 = !DISubroutineType(types: !478)
!478 = !{!393, !323, !399, !337}
!479 = !DISubprogram(name: "insert", linkageName: "_ZNSt6vectorIiSaIiEE6insertEN9__gnu_cxx17__normal_iteratorIPKiS1_EEOi", scope: !42, file: !35, line: 1393, type: !480, scopeLine: 1393, flags: DIFlagPublic | DIFlagPrototyped, spFlags: 0)
!480 = !DISubroutineType(types: !481)
!481 = !{!393, !323, !399, !474}
!482 = !DISubprogram(name: "insert", linkageName: "_ZNSt6vectorIiSaIiEE6insertEN9__gnu_cxx17__normal_iteratorIPKiS1_EESt16initializer_listIiE", scope: !42, file: !35, line: 1411, type: !483, scopeLine: 1411, flags: DIFlagPublic | DIFlagPrototyped, spFlags: 0)
!483 = !DISubroutineType(types: !484)
!484 = !{!393, !323, !399, !371}
!485 = !DISubprogram(name: "insert", linkageName: "_ZNSt6vectorIiSaIiEE6insertEN9__gnu_cxx17__normal_iteratorIPKiS1_EEmRS4_", scope: !42, file: !35, line: 1437, type: !486, scopeLine: 1437, flags: DIFlagPublic | DIFlagPrototyped, spFlags: 0)
!486 = !DISubroutineType(types: !487)
!487 = !{!393, !323, !399, !333, !337}
!488 = !DISubprogram(name: "erase", linkageName: "_ZNSt6vectorIiSaIiEE5eraseEN9__gnu_cxx17__normal_iteratorIPKiS1_EE", scope: !42, file: !35, line: 1534, type: !489, scopeLine: 1534, flags: DIFlagPublic | DIFlagPrototyped, spFlags: 0)
!489 = !DISubroutineType(types: !490)
!490 = !{!393, !323, !399}
!491 = !DISubprogram(name: "erase", linkageName: "_ZNSt6vectorIiSaIiEE5eraseEN9__gnu_cxx17__normal_iteratorIPKiS1_EES6_", scope: !42, file: !35, line: 1562, type: !492, scopeLine: 1562, flags: DIFlagPublic | DIFlagPrototyped, spFlags: 0)
!492 = !DISubroutineType(types: !493)
!493 = !{!393, !323, !399, !399}
!494 = !DISubprogram(name: "swap", linkageName: "_ZNSt6vectorIiSaIiEE4swapERS1_", scope: !42, file: !35, line: 1586, type: !495, scopeLine: 1586, flags: DIFlagPublic | DIFlagPrototyped, spFlags: 0)
!495 = !DISubroutineType(types: !496)
!496 = !{null, !323, !377}
!497 = !DISubprogram(name: "clear", linkageName: "_ZNSt6vectorIiSaIiEE5clearEv", scope: !42, file: !35, line: 1605, type: !321, scopeLine: 1605, flags: DIFlagPublic | DIFlagPrototyped, spFlags: 0)
!498 = !DISubprogram(name: "_M_fill_initialize", linkageName: "_ZNSt6vectorIiSaIiEE18_M_fill_initializeEmRKi", scope: !42, file: !35, line: 1704, type: !385, scopeLine: 1704, flags: DIFlagProtected | DIFlagPrototyped, spFlags: 0)
!499 = !DISubprogram(name: "_M_default_initialize", linkageName: "_ZNSt6vectorIiSaIiEE21_M_default_initializeEm", scope: !42, file: !35, line: 1715, type: !425, scopeLine: 1715, flags: DIFlagProtected | DIFlagPrototyped, spFlags: 0)
!500 = !DISubprogram(name: "_M_fill_assign", linkageName: "_ZNSt6vectorIiSaIiEE14_M_fill_assignEmRKi", scope: !42, file: !35, line: 1762, type: !385, scopeLine: 1762, flags: DIFlagProtected | DIFlagPrototyped, spFlags: 0)
!501 = !DISubprogram(name: "_M_fill_insert", linkageName: "_ZNSt6vectorIiSaIiEE14_M_fill_insertEN9__gnu_cxx17__normal_iteratorIPiS1_EEmRKi", scope: !42, file: !35, line: 1806, type: !502, scopeLine: 1806, flags: DIFlagProtected | DIFlagPrototyped, spFlags: 0)
!502 = !DISubroutineType(types: !503)
!503 = !{null, !323, !393, !333, !337}
!504 = !DISubprogram(name: "_M_default_append", linkageName: "_ZNSt6vectorIiSaIiEE17_M_default_appendEm", scope: !42, file: !35, line: 1812, type: !425, scopeLine: 1812, flags: DIFlagProtected | DIFlagPrototyped, spFlags: 0)
!505 = !DISubprogram(name: "_M_shrink_to_fit", linkageName: "_ZNSt6vectorIiSaIiEE16_M_shrink_to_fitEv", scope: !42, file: !35, line: 1816, type: !506, scopeLine: 1816, flags: DIFlagProtected | DIFlagPrototyped, spFlags: 0)
!506 = !DISubroutineType(types: !507)
!507 = !{!169, !323}
!508 = !DISubprogram(name: "_M_insert_rval", linkageName: "_ZNSt6vectorIiSaIiEE14_M_insert_rvalEN9__gnu_cxx17__normal_iteratorIPKiS1_EEOi", scope: !42, file: !35, line: 1878, type: !480, scopeLine: 1878, flags: DIFlagProtected | DIFlagPrototyped, spFlags: 0)
!509 = !DISubprogram(name: "_M_emplace_aux", linkageName: "_ZNSt6vectorIiSaIiEE14_M_emplace_auxEN9__gnu_cxx17__normal_iteratorIPKiS1_EEOi", scope: !42, file: !35, line: 1889, type: !480, scopeLine: 1889, flags: DIFlagProtected | DIFlagPrototyped, spFlags: 0)
!510 = !DISubprogram(name: "_M_check_len", linkageName: "_ZNKSt6vectorIiSaIiEE12_M_check_lenEmPKc", scope: !42, file: !35, line: 1896, type: !511, scopeLine: 1896, flags: DIFlagProtected | DIFlagPrototyped, spFlags: 0)
!511 = !DISubroutineType(types: !512)
!512 = !{!513, !401, !333, !514}
!513 = !DIDerivedType(tag: DW_TAG_typedef, name: "size_type", scope: !42, file: !35, line: 463, baseType: !113, flags: DIFlagPublic)
!514 = !DIDerivedType(tag: DW_TAG_pointer_type, baseType: !4, size: 64)
!515 = !DISubprogram(name: "_S_check_init_len", linkageName: "_ZNSt6vectorIiSaIiEE17_S_check_init_lenEmRKS0_", scope: !42, file: !35, line: 1907, type: !516, scopeLine: 1907, flags: DIFlagProtected | DIFlagPrototyped | DIFlagStaticMember, spFlags: 0)
!516 = !DISubroutineType(types: !517)
!517 = !{!513, !333, !327}
!518 = !DISubprogram(name: "_S_max_size", linkageName: "_ZNSt6vectorIiSaIiEE11_S_max_sizeERKS0_", scope: !42, file: !35, line: 1916, type: !519, scopeLine: 1916, flags: DIFlagProtected | DIFlagPrototyped | DIFlagStaticMember, spFlags: 0)
!519 = !DISubroutineType(types: !520)
!520 = !{!513, !521}
!521 = !DIDerivedType(tag: DW_TAG_reference_type, baseType: !522, size: 64)
!522 = !DIDerivedType(tag: DW_TAG_const_type, baseType: !41)
!523 = !DISubprogram(name: "_M_erase_at_end", linkageName: "_ZNSt6vectorIiSaIiEE15_M_erase_at_endEPi", scope: !42, file: !35, line: 1933, type: !524, scopeLine: 1933, flags: DIFlagProtected | DIFlagPrototyped, spFlags: 0)
!524 = !DISubroutineType(types: !525)
!525 = !{null, !323, !312}
!526 = !DISubprogram(name: "_M_erase", linkageName: "_ZNSt6vectorIiSaIiEE8_M_eraseEN9__gnu_cxx17__normal_iteratorIPiS1_EE", scope: !42, file: !35, line: 1946, type: !527, scopeLine: 1946, flags: DIFlagProtected | DIFlagPrototyped, spFlags: 0)
!527 = !DISubroutineType(types: !528)
!528 = !{!393, !323, !393}
!529 = !DISubprogram(name: "_M_erase", linkageName: "_ZNSt6vectorIiSaIiEE8_M_eraseEN9__gnu_cxx17__normal_iteratorIPiS1_EES5_", scope: !42, file: !35, line: 1950, type: !530, scopeLine: 1950, flags: DIFlagProtected | DIFlagPrototyped, spFlags: 0)
!530 = !DISubroutineType(types: !531)
!531 = !{!393, !323, !393, !393}
!532 = !DISubprogram(name: "_M_move_assign", linkageName: "_ZNSt6vectorIiSaIiEE14_M_move_assignEOS1_St17integral_constantIbLb1EE", scope: !42, file: !35, line: 1959, type: !533, scopeLine: 1959, flags: DIFlagPrototyped, spFlags: 0)
!533 = !DISubroutineType(types: !534)
!534 = !{null, !323, !348, !276}
!535 = !DISubprogram(name: "_M_move_assign", linkageName: "_ZNSt6vectorIiSaIiEE14_M_move_assignEOS1_St17integral_constantIbLb0EE", scope: !42, file: !35, line: 1971, type: !536, scopeLine: 1971, flags: DIFlagPrototyped, spFlags: 0)
!536 = !DISubroutineType(types: !537)
!537 = !{null, !323, !348, !295}
!538 = !{!126, !539}
!539 = !DITemplateTypeParameter(name: "_Alloc", type: !71, defaulted: true)
!540 = !{!0, !8, !13, !18, !23, !28, !33}
!541 = !{!542, !558, !561, !566, !574, !582, !586, !593, !597, !601, !603, !605, !609, !618, !622, !628, !634, !636, !640, !644, !648, !652, !664, !666, !670, !674, !678, !680, !686, !690, !694, !696, !698, !702, !710, !714, !718, !722, !724, !730, !732, !739, !744, !748, !753, !757, !761, !765, !767, !769, !773, !777, !781, !783, !787, !791, !793, !795, !799, !804, !809, !814, !815, !816, !817, !818, !819, !820, !821, !822, !823, !824, !828, !832, !837, !841, !845, !850, !856, !858, !860, !862, !864, !866, !868, !870, !872, !874, !876, !878, !880, !882, !886, !890, !894, !900, !904, !908, !913, !915, !919, !923, !927, !935, !937, !941, !945, !949, !953, !957, !961, !965, !969, !973, !977, !981, !983, !987, !991, !995, !1001, !1005, !1009, !1011, !1015, !1019, !1025, !1027, !1031, !1035, !1039, !1043, !1047, !1051, !1055, !1056, !1057, !1058, !1060, !1061, !1062, !1063, !1064, !1065, !1066, !1070, !1076, !1081, !1085, !1087, !1089, !1091, !1093, !1100, !1104, !1108, !1112, !1116, !1120, !1125, !1129, !1131, !1135, !1141, !1145, !1150, !1152, !1154, !1158, !1162, !1164, !1166, !1168, !1170, !1174, !1176, !1178, !1182, !1186, !1190, !1194, !1198, !1202, !1204, !1208, !1212, !1216, !1220, !1222, !1224, !1228, !1232, !1233, !1234, !1235, !1236, !1237, !1245, !1253, !1256, !1257, !1259, !1261, !1263, !1265, !1269, !1271, !1273, !1275, !1277, !1279, !1281, !1283, !1285, !1289, !1293, !1295, !1299, !1303, !1305, !1306, !1307, !1308, !1309, !1310, !1311, !1312, !1317, !1318, !1319, !1320, !1321, !1322, !1323, !1324, !1325, !1326, !1327, !1328, !1329, !1330, !1331, !1332, !1333, !1334, !1335, !1336, !1337, !1338, !1339, !1340}
!542 = !DIImportedEntity(tag: DW_TAG_imported_declaration, scope: !43, entity: !543, file: !557, line: 64)
!543 = !DIDerivedType(tag: DW_TAG_typedef, name: "mbstate_t", file: !544, line: 6, baseType: !545)
!544 = !DIFile(filename: "/usr/include/x86_64-linux-gnu/bits/types/mbstate_t.h", directory: "", checksumkind: CSK_MD5, checksum: "ba8742313715e20e434cf6ccb2db98e3")
!545 = !DIDerivedType(tag: DW_TAG_typedef, name: "__mbstate_t", file: !546, line: 21, baseType: !547)
!546 = !DIFile(filename: "/usr/include/x86_64-linux-gnu/bits/types/__mbstate_t.h", directory: "", checksumkind: CSK_MD5, checksum: "82911a3e689448e3691ded3e0b471a55")
!547 = distinct !DICompositeType(tag: DW_TAG_structure_type, file: !546, line: 13, size: 64, flags: DIFlagTypePassByValue, elements: !548, identifier: "_ZTS11__mbstate_t")
!548 = !{!549, !550}
!549 = !DIDerivedType(tag: DW_TAG_member, name: "__count", scope: !547, file: !546, line: 15, baseType: !68, size: 32)
!550 = !DIDerivedType(tag: DW_TAG_member, name: "__value", scope: !547, file: !546, line: 20, baseType: !551, size: 32, offset: 32)
!551 = distinct !DICompositeType(tag: DW_TAG_union_type, scope: !547, file: !546, line: 16, size: 32, flags: DIFlagTypePassByValue, elements: !552, identifier: "_ZTSN11__mbstate_tUt_E")
!552 = !{!553, !555}
!553 = !DIDerivedType(tag: DW_TAG_member, name: "__wch", scope: !551, file: !546, line: 18, baseType: !554, size: 32)
!554 = !DIBasicType(name: "unsigned int", size: 32, encoding: DW_ATE_unsigned)
!555 = !DIDerivedType(tag: DW_TAG_member, name: "__wchb", scope: !551, file: !546, line: 19, baseType: !556, size: 32)
!556 = !DICompositeType(tag: DW_TAG_array_type, baseType: !5, size: 32, elements: !11)
!557 = !DIFile(filename: "/usr/lib/gcc/x86_64-linux-gnu/13/../../../../include/c++/13/cwchar", directory: "")
!558 = !DIImportedEntity(tag: DW_TAG_imported_declaration, scope: !43, entity: !559, file: !557, line: 141)
!559 = !DIDerivedType(tag: DW_TAG_typedef, name: "wint_t", file: !560, line: 20, baseType: !554)
!560 = !DIFile(filename: "/usr/include/x86_64-linux-gnu/bits/types/wint_t.h", directory: "", checksumkind: CSK_MD5, checksum: "aa31b53ef28dc23152ceb41e2763ded3")
!561 = !DIImportedEntity(tag: DW_TAG_imported_declaration, scope: !43, entity: !562, file: !557, line: 143)
!562 = !DISubprogram(name: "btowc", scope: !563, file: !563, line: 309, type: !564, flags: DIFlagPrototyped, spFlags: 0)
!563 = !DIFile(filename: "/usr/include/wchar.h", directory: "", checksumkind: CSK_MD5, checksum: "889114206ea781a9a9a0b33e52589e47")
!564 = !DISubroutineType(types: !565)
!565 = !{!559, !68}
!566 = !DIImportedEntity(tag: DW_TAG_imported_declaration, scope: !43, entity: !567, file: !557, line: 144)
!567 = !DISubprogram(name: "fgetwc", scope: !563, file: !563, line: 935, type: !568, flags: DIFlagPrototyped, spFlags: 0)
!568 = !DISubroutineType(types: !569)
!569 = !{!559, !570}
!570 = !DIDerivedType(tag: DW_TAG_pointer_type, baseType: !571, size: 64)
!571 = !DIDerivedType(tag: DW_TAG_typedef, name: "__FILE", file: !572, line: 5, baseType: !573)
!572 = !DIFile(filename: "/usr/include/x86_64-linux-gnu/bits/types/__FILE.h", directory: "", checksumkind: CSK_MD5, checksum: "72a8fe90981f484acae7c6f3dfc5c2b7")
!573 = !DICompositeType(tag: DW_TAG_structure_type, name: "_IO_FILE", file: !572, line: 4, flags: DIFlagFwdDecl | DIFlagNonTrivial, identifier: "_ZTS8_IO_FILE")
!574 = !DIImportedEntity(tag: DW_TAG_imported_declaration, scope: !43, entity: !575, file: !557, line: 145)
!575 = !DISubprogram(name: "fgetws", scope: !563, file: !563, line: 964, type: !576, flags: DIFlagPrototyped, spFlags: 0)
!576 = !DISubroutineType(types: !577)
!577 = !{!578, !580, !68, !581}
!578 = !DIDerivedType(tag: DW_TAG_pointer_type, baseType: !579, size: 64)
!579 = !DIBasicType(name: "wchar_t", size: 32, encoding: DW_ATE_signed)
!580 = !DIDerivedType(tag: DW_TAG_restrict_type, baseType: !578)
!581 = !DIDerivedType(tag: DW_TAG_restrict_type, baseType: !570)
!582 = !DIImportedEntity(tag: DW_TAG_imported_declaration, scope: !43, entity: !583, file: !557, line: 146)
!583 = !DISubprogram(name: "fputwc", scope: !563, file: !563, line: 949, type: !584, flags: DIFlagPrototyped, spFlags: 0)
!584 = !DISubroutineType(types: !585)
!585 = !{!559, !579, !570}
!586 = !DIImportedEntity(tag: DW_TAG_imported_declaration, scope: !43, entity: !587, file: !557, line: 147)
!587 = !DISubprogram(name: "fputws", scope: !563, file: !563, line: 971, type: !588, flags: DIFlagPrototyped, spFlags: 0)
!588 = !DISubroutineType(types: !589)
!589 = !{!68, !590, !581}
!590 = !DIDerivedType(tag: DW_TAG_restrict_type, baseType: !591)
!591 = !DIDerivedType(tag: DW_TAG_pointer_type, baseType: !592, size: 64)
!592 = !DIDerivedType(tag: DW_TAG_const_type, baseType: !579)
!593 = !DIImportedEntity(tag: DW_TAG_imported_declaration, scope: !43, entity: !594, file: !557, line: 148)
!594 = !DISubprogram(name: "fwide", scope: !563, file: !563, line: 725, type: !595, flags: DIFlagPrototyped, spFlags: 0)
!595 = !DISubroutineType(types: !596)
!596 = !{!68, !570, !68}
!597 = !DIImportedEntity(tag: DW_TAG_imported_declaration, scope: !43, entity: !598, file: !557, line: 149)
!598 = !DISubprogram(name: "fwprintf", scope: !563, file: !563, line: 732, type: !599, flags: DIFlagPrototyped, spFlags: 0)
!599 = !DISubroutineType(types: !600)
!600 = !{!68, !581, !590, null}
!601 = !DIImportedEntity(tag: DW_TAG_imported_declaration, scope: !43, entity: !602, file: !557, line: 150)
!602 = !DISubprogram(name: "fwscanf", linkageName: "__isoc23_fwscanf", scope: !563, file: !563, line: 795, type: !599, flags: DIFlagPrototyped, spFlags: 0)
!603 = !DIImportedEntity(tag: DW_TAG_imported_declaration, scope: !43, entity: !604, file: !557, line: 151)
!604 = !DISubprogram(name: "getwc", scope: !563, file: !563, line: 936, type: !568, flags: DIFlagPrototyped, spFlags: 0)
!605 = !DIImportedEntity(tag: DW_TAG_imported_declaration, scope: !43, entity: !606, file: !557, line: 152)
!606 = !DISubprogram(name: "getwchar", scope: !563, file: !563, line: 942, type: !607, flags: DIFlagPrototyped, spFlags: 0)
!607 = !DISubroutineType(types: !608)
!608 = !{!559}
!609 = !DIImportedEntity(tag: DW_TAG_imported_declaration, scope: !43, entity: !610, file: !557, line: 153)
!610 = !DISubprogram(name: "mbrlen", scope: !563, file: !563, line: 332, type: !611, flags: DIFlagPrototyped, spFlags: 0)
!611 = !DISubroutineType(types: !612)
!612 = !{!613, !615, !613, !616}
!613 = !DIDerivedType(tag: DW_TAG_typedef, name: "size_t", file: !614, line: 18, baseType: !115)
!614 = !DIFile(filename: "llvm-install/lib/clang/21/include/__stddef_size_t.h", directory: "/home/lekhana", checksumkind: CSK_MD5, checksum: "2c44e821a2b1951cde2eb0fb2e656867")
!615 = !DIDerivedType(tag: DW_TAG_restrict_type, baseType: !514)
!616 = !DIDerivedType(tag: DW_TAG_restrict_type, baseType: !617)
!617 = !DIDerivedType(tag: DW_TAG_pointer_type, baseType: !543, size: 64)
!618 = !DIImportedEntity(tag: DW_TAG_imported_declaration, scope: !43, entity: !619, file: !557, line: 154)
!619 = !DISubprogram(name: "mbrtowc", scope: !563, file: !563, line: 321, type: !620, flags: DIFlagPrototyped, spFlags: 0)
!620 = !DISubroutineType(types: !621)
!621 = !{!613, !580, !615, !613, !616}
!622 = !DIImportedEntity(tag: DW_TAG_imported_declaration, scope: !43, entity: !623, file: !557, line: 155)
!623 = !DISubprogram(name: "mbsinit", scope: !563, file: !563, line: 317, type: !624, flags: DIFlagPrototyped, spFlags: 0)
!624 = !DISubroutineType(types: !625)
!625 = !{!68, !626}
!626 = !DIDerivedType(tag: DW_TAG_pointer_type, baseType: !627, size: 64)
!627 = !DIDerivedType(tag: DW_TAG_const_type, baseType: !543)
!628 = !DIImportedEntity(tag: DW_TAG_imported_declaration, scope: !43, entity: !629, file: !557, line: 156)
!629 = !DISubprogram(name: "mbsrtowcs", scope: !563, file: !563, line: 362, type: !630, flags: DIFlagPrototyped, spFlags: 0)
!630 = !DISubroutineType(types: !631)
!631 = !{!613, !580, !632, !613, !616}
!632 = !DIDerivedType(tag: DW_TAG_restrict_type, baseType: !633)
!633 = !DIDerivedType(tag: DW_TAG_pointer_type, baseType: !514, size: 64)
!634 = !DIImportedEntity(tag: DW_TAG_imported_declaration, scope: !43, entity: !635, file: !557, line: 157)
!635 = !DISubprogram(name: "putwc", scope: !563, file: !563, line: 950, type: !584, flags: DIFlagPrototyped, spFlags: 0)
!636 = !DIImportedEntity(tag: DW_TAG_imported_declaration, scope: !43, entity: !637, file: !557, line: 158)
!637 = !DISubprogram(name: "putwchar", scope: !563, file: !563, line: 956, type: !638, flags: DIFlagPrototyped, spFlags: 0)
!638 = !DISubroutineType(types: !639)
!639 = !{!559, !579}
!640 = !DIImportedEntity(tag: DW_TAG_imported_declaration, scope: !43, entity: !641, file: !557, line: 160)
!641 = !DISubprogram(name: "swprintf", scope: !563, file: !563, line: 742, type: !642, flags: DIFlagPrototyped, spFlags: 0)
!642 = !DISubroutineType(types: !643)
!643 = !{!68, !580, !613, !590, null}
!644 = !DIImportedEntity(tag: DW_TAG_imported_declaration, scope: !43, entity: !645, file: !557, line: 162)
!645 = !DISubprogram(name: "swscanf", linkageName: "__isoc23_swscanf", scope: !563, file: !563, line: 802, type: !646, flags: DIFlagPrototyped, spFlags: 0)
!646 = !DISubroutineType(types: !647)
!647 = !{!68, !590, !590, null}
!648 = !DIImportedEntity(tag: DW_TAG_imported_declaration, scope: !43, entity: !649, file: !557, line: 163)
!649 = !DISubprogram(name: "ungetwc", scope: !563, file: !563, line: 979, type: !650, flags: DIFlagPrototyped, spFlags: 0)
!650 = !DISubroutineType(types: !651)
!651 = !{!559, !559, !570}
!652 = !DIImportedEntity(tag: DW_TAG_imported_declaration, scope: !43, entity: !653, file: !557, line: 164)
!653 = !DISubprogram(name: "vfwprintf", scope: !563, file: !563, line: 750, type: !654, flags: DIFlagPrototyped, spFlags: 0)
!654 = !DISubroutineType(types: !655)
!655 = !{!68, !581, !590, !656}
!656 = !DIDerivedType(tag: DW_TAG_pointer_type, baseType: !657, size: 64)
!657 = distinct !DICompositeType(tag: DW_TAG_structure_type, name: "__va_list_tag", size: 192, flags: DIFlagTypePassByValue, elements: !658, identifier: "_ZTS13__va_list_tag")
!658 = !{!659, !660, !661, !663}
!659 = !DIDerivedType(tag: DW_TAG_member, name: "gp_offset", scope: !657, file: !2, baseType: !554, size: 32)
!660 = !DIDerivedType(tag: DW_TAG_member, name: "fp_offset", scope: !657, file: !2, baseType: !554, size: 32, offset: 32)
!661 = !DIDerivedType(tag: DW_TAG_member, name: "overflow_arg_area", scope: !657, file: !2, baseType: !662, size: 64, offset: 64)
!662 = !DIDerivedType(tag: DW_TAG_pointer_type, baseType: null, size: 64)
!663 = !DIDerivedType(tag: DW_TAG_member, name: "reg_save_area", scope: !657, file: !2, baseType: !662, size: 64, offset: 128)
!664 = !DIImportedEntity(tag: DW_TAG_imported_declaration, scope: !43, entity: !665, file: !557, line: 166)
!665 = !DISubprogram(name: "vfwscanf", linkageName: "__isoc23_vfwscanf", scope: !563, file: !563, line: 875, type: !654, flags: DIFlagPrototyped, spFlags: 0)
!666 = !DIImportedEntity(tag: DW_TAG_imported_declaration, scope: !43, entity: !667, file: !557, line: 169)
!667 = !DISubprogram(name: "vswprintf", scope: !563, file: !563, line: 763, type: !668, flags: DIFlagPrototyped, spFlags: 0)
!668 = !DISubroutineType(types: !669)
!669 = !{!68, !580, !613, !590, !656}
!670 = !DIImportedEntity(tag: DW_TAG_imported_declaration, scope: !43, entity: !671, file: !557, line: 172)
!671 = !DISubprogram(name: "vswscanf", linkageName: "__isoc23_vswscanf", scope: !563, file: !563, line: 882, type: !672, flags: DIFlagPrototyped, spFlags: 0)
!672 = !DISubroutineType(types: !673)
!673 = !{!68, !590, !590, !656}
!674 = !DIImportedEntity(tag: DW_TAG_imported_declaration, scope: !43, entity: !675, file: !557, line: 174)
!675 = !DISubprogram(name: "vwprintf", scope: !563, file: !563, line: 758, type: !676, flags: DIFlagPrototyped, spFlags: 0)
!676 = !DISubroutineType(types: !677)
!677 = !{!68, !590, !656}
!678 = !DIImportedEntity(tag: DW_TAG_imported_declaration, scope: !43, entity: !679, file: !557, line: 176)
!679 = !DISubprogram(name: "vwscanf", linkageName: "__isoc23_vwscanf", scope: !563, file: !563, line: 879, type: !676, flags: DIFlagPrototyped, spFlags: 0)
!680 = !DIImportedEntity(tag: DW_TAG_imported_declaration, scope: !43, entity: !681, file: !557, line: 178)
!681 = !DISubprogram(name: "wcrtomb", scope: !563, file: !563, line: 326, type: !682, flags: DIFlagPrototyped, spFlags: 0)
!682 = !DISubroutineType(types: !683)
!683 = !{!613, !684, !579, !616}
!684 = !DIDerivedType(tag: DW_TAG_restrict_type, baseType: !685)
!685 = !DIDerivedType(tag: DW_TAG_pointer_type, baseType: !5, size: 64)
!686 = !DIImportedEntity(tag: DW_TAG_imported_declaration, scope: !43, entity: !687, file: !557, line: 179)
!687 = !DISubprogram(name: "wcscat", scope: !563, file: !563, line: 121, type: !688, flags: DIFlagPrototyped, spFlags: 0)
!688 = !DISubroutineType(types: !689)
!689 = !{!578, !580, !590}
!690 = !DIImportedEntity(tag: DW_TAG_imported_declaration, scope: !43, entity: !691, file: !557, line: 180)
!691 = !DISubprogram(name: "wcscmp", scope: !563, file: !563, line: 130, type: !692, flags: DIFlagPrototyped, spFlags: 0)
!692 = !DISubroutineType(types: !693)
!693 = !{!68, !591, !591}
!694 = !DIImportedEntity(tag: DW_TAG_imported_declaration, scope: !43, entity: !695, file: !557, line: 181)
!695 = !DISubprogram(name: "wcscoll", scope: !563, file: !563, line: 155, type: !692, flags: DIFlagPrototyped, spFlags: 0)
!696 = !DIImportedEntity(tag: DW_TAG_imported_declaration, scope: !43, entity: !697, file: !557, line: 182)
!697 = !DISubprogram(name: "wcscpy", scope: !563, file: !563, line: 98, type: !688, flags: DIFlagPrototyped, spFlags: 0)
!698 = !DIImportedEntity(tag: DW_TAG_imported_declaration, scope: !43, entity: !699, file: !557, line: 183)
!699 = !DISubprogram(name: "wcscspn", scope: !563, file: !563, line: 212, type: !700, flags: DIFlagPrototyped, spFlags: 0)
!700 = !DISubroutineType(types: !701)
!701 = !{!613, !591, !591}
!702 = !DIImportedEntity(tag: DW_TAG_imported_declaration, scope: !43, entity: !703, file: !557, line: 184)
!703 = !DISubprogram(name: "wcsftime", scope: !563, file: !563, line: 1043, type: !704, flags: DIFlagPrototyped, spFlags: 0)
!704 = !DISubroutineType(types: !705)
!705 = !{!613, !580, !613, !590, !706}
!706 = !DIDerivedType(tag: DW_TAG_restrict_type, baseType: !707)
!707 = !DIDerivedType(tag: DW_TAG_pointer_type, baseType: !708, size: 64)
!708 = !DIDerivedType(tag: DW_TAG_const_type, baseType: !709)
!709 = !DICompositeType(tag: DW_TAG_structure_type, name: "tm", file: !563, line: 94, flags: DIFlagFwdDecl | DIFlagNonTrivial, identifier: "_ZTS2tm")
!710 = !DIImportedEntity(tag: DW_TAG_imported_declaration, scope: !43, entity: !711, file: !557, line: 185)
!711 = !DISubprogram(name: "wcslen", scope: !563, file: !563, line: 247, type: !712, flags: DIFlagPrototyped, spFlags: 0)
!712 = !DISubroutineType(types: !713)
!713 = !{!613, !591}
!714 = !DIImportedEntity(tag: DW_TAG_imported_declaration, scope: !43, entity: !715, file: !557, line: 186)
!715 = !DISubprogram(name: "wcsncat", scope: !563, file: !563, line: 125, type: !716, flags: DIFlagPrototyped, spFlags: 0)
!716 = !DISubroutineType(types: !717)
!717 = !{!578, !580, !590, !613}
!718 = !DIImportedEntity(tag: DW_TAG_imported_declaration, scope: !43, entity: !719, file: !557, line: 187)
!719 = !DISubprogram(name: "wcsncmp", scope: !563, file: !563, line: 133, type: !720, flags: DIFlagPrototyped, spFlags: 0)
!720 = !DISubroutineType(types: !721)
!721 = !{!68, !591, !591, !613}
!722 = !DIImportedEntity(tag: DW_TAG_imported_declaration, scope: !43, entity: !723, file: !557, line: 188)
!723 = !DISubprogram(name: "wcsncpy", scope: !563, file: !563, line: 103, type: !716, flags: DIFlagPrototyped, spFlags: 0)
!724 = !DIImportedEntity(tag: DW_TAG_imported_declaration, scope: !43, entity: !725, file: !557, line: 189)
!725 = !DISubprogram(name: "wcsrtombs", scope: !563, file: !563, line: 368, type: !726, flags: DIFlagPrototyped, spFlags: 0)
!726 = !DISubroutineType(types: !727)
!727 = !{!613, !684, !728, !613, !616}
!728 = !DIDerivedType(tag: DW_TAG_restrict_type, baseType: !729)
!729 = !DIDerivedType(tag: DW_TAG_pointer_type, baseType: !591, size: 64)
!730 = !DIImportedEntity(tag: DW_TAG_imported_declaration, scope: !43, entity: !731, file: !557, line: 190)
!731 = !DISubprogram(name: "wcsspn", scope: !563, file: !563, line: 216, type: !700, flags: DIFlagPrototyped, spFlags: 0)
!732 = !DIImportedEntity(tag: DW_TAG_imported_declaration, scope: !43, entity: !733, file: !557, line: 191)
!733 = !DISubprogram(name: "wcstod", scope: !563, file: !563, line: 402, type: !734, flags: DIFlagPrototyped, spFlags: 0)
!734 = !DISubroutineType(types: !735)
!735 = !{!736, !590, !737}
!736 = !DIBasicType(name: "double", size: 64, encoding: DW_ATE_float)
!737 = !DIDerivedType(tag: DW_TAG_restrict_type, baseType: !738)
!738 = !DIDerivedType(tag: DW_TAG_pointer_type, baseType: !578, size: 64)
!739 = !DIImportedEntity(tag: DW_TAG_imported_declaration, scope: !43, entity: !740, file: !557, line: 193)
!740 = !DISubprogram(name: "wcstof", scope: !563, file: !563, line: 407, type: !741, flags: DIFlagPrototyped, spFlags: 0)
!741 = !DISubroutineType(types: !742)
!742 = !{!743, !590, !737}
!743 = !DIBasicType(name: "float", size: 32, encoding: DW_ATE_float)
!744 = !DIImportedEntity(tag: DW_TAG_imported_declaration, scope: !43, entity: !745, file: !557, line: 195)
!745 = !DISubprogram(name: "wcstok", scope: !563, file: !563, line: 242, type: !746, flags: DIFlagPrototyped, spFlags: 0)
!746 = !DISubroutineType(types: !747)
!747 = !{!578, !580, !590, !737}
!748 = !DIImportedEntity(tag: DW_TAG_imported_declaration, scope: !43, entity: !749, file: !557, line: 196)
!749 = !DISubprogram(name: "wcstol", linkageName: "__isoc23_wcstol", scope: !563, file: !563, line: 500, type: !750, flags: DIFlagPrototyped, spFlags: 0)
!750 = !DISubroutineType(types: !751)
!751 = !{!752, !590, !737, !68}
!752 = !DIBasicType(name: "long", size: 64, encoding: DW_ATE_signed)
!753 = !DIImportedEntity(tag: DW_TAG_imported_declaration, scope: !43, entity: !754, file: !557, line: 197)
!754 = !DISubprogram(name: "wcstoul", linkageName: "__isoc23_wcstoul", scope: !563, file: !563, line: 503, type: !755, flags: DIFlagPrototyped, spFlags: 0)
!755 = !DISubroutineType(types: !756)
!756 = !{!115, !590, !737, !68}
!757 = !DIImportedEntity(tag: DW_TAG_imported_declaration, scope: !43, entity: !758, file: !557, line: 198)
!758 = !DISubprogram(name: "wcsxfrm", scope: !563, file: !563, line: 159, type: !759, flags: DIFlagPrototyped, spFlags: 0)
!759 = !DISubroutineType(types: !760)
!760 = !{!613, !580, !590, !613}
!761 = !DIImportedEntity(tag: DW_TAG_imported_declaration, scope: !43, entity: !762, file: !557, line: 199)
!762 = !DISubprogram(name: "wctob", scope: !563, file: !563, line: 313, type: !763, flags: DIFlagPrototyped, spFlags: 0)
!763 = !DISubroutineType(types: !764)
!764 = !{!68, !559}
!765 = !DIImportedEntity(tag: DW_TAG_imported_declaration, scope: !43, entity: !766, file: !557, line: 200)
!766 = !DISubprogram(name: "wmemcmp", scope: !563, file: !563, line: 283, type: !720, flags: DIFlagPrototyped, spFlags: 0)
!767 = !DIImportedEntity(tag: DW_TAG_imported_declaration, scope: !43, entity: !768, file: !557, line: 201)
!768 = !DISubprogram(name: "wmemcpy", scope: !563, file: !563, line: 287, type: !716, flags: DIFlagPrototyped, spFlags: 0)
!769 = !DIImportedEntity(tag: DW_TAG_imported_declaration, scope: !43, entity: !770, file: !557, line: 202)
!770 = !DISubprogram(name: "wmemmove", scope: !563, file: !563, line: 292, type: !771, flags: DIFlagPrototyped, spFlags: 0)
!771 = !DISubroutineType(types: !772)
!772 = !{!578, !578, !591, !613}
!773 = !DIImportedEntity(tag: DW_TAG_imported_declaration, scope: !43, entity: !774, file: !557, line: 203)
!774 = !DISubprogram(name: "wmemset", scope: !563, file: !563, line: 296, type: !775, flags: DIFlagPrototyped, spFlags: 0)
!775 = !DISubroutineType(types: !776)
!776 = !{!578, !578, !579, !613}
!777 = !DIImportedEntity(tag: DW_TAG_imported_declaration, scope: !43, entity: !778, file: !557, line: 204)
!778 = !DISubprogram(name: "wprintf", scope: !563, file: !563, line: 739, type: !779, flags: DIFlagPrototyped, spFlags: 0)
!779 = !DISubroutineType(types: !780)
!780 = !{!68, !590, null}
!781 = !DIImportedEntity(tag: DW_TAG_imported_declaration, scope: !43, entity: !782, file: !557, line: 205)
!782 = !DISubprogram(name: "wscanf", linkageName: "__isoc23_wscanf", scope: !563, file: !563, line: 799, type: !779, flags: DIFlagPrototyped, spFlags: 0)
!783 = !DIImportedEntity(tag: DW_TAG_imported_declaration, scope: !43, entity: !784, file: !557, line: 206)
!784 = !DISubprogram(name: "wcschr", scope: !563, file: !563, line: 189, type: !785, flags: DIFlagPrototyped, spFlags: 0)
!785 = !DISubroutineType(types: !786)
!786 = !{!578, !591, !579}
!787 = !DIImportedEntity(tag: DW_TAG_imported_declaration, scope: !43, entity: !788, file: !557, line: 207)
!788 = !DISubprogram(name: "wcspbrk", scope: !563, file: !563, line: 226, type: !789, flags: DIFlagPrototyped, spFlags: 0)
!789 = !DISubroutineType(types: !790)
!790 = !{!578, !591, !591}
!791 = !DIImportedEntity(tag: DW_TAG_imported_declaration, scope: !43, entity: !792, file: !557, line: 208)
!792 = !DISubprogram(name: "wcsrchr", scope: !563, file: !563, line: 199, type: !785, flags: DIFlagPrototyped, spFlags: 0)
!793 = !DIImportedEntity(tag: DW_TAG_imported_declaration, scope: !43, entity: !794, file: !557, line: 209)
!794 = !DISubprogram(name: "wcsstr", scope: !563, file: !563, line: 237, type: !789, flags: DIFlagPrototyped, spFlags: 0)
!795 = !DIImportedEntity(tag: DW_TAG_imported_declaration, scope: !43, entity: !796, file: !557, line: 210)
!796 = !DISubprogram(name: "wmemchr", scope: !563, file: !563, line: 278, type: !797, flags: DIFlagPrototyped, spFlags: 0)
!797 = !DISubroutineType(types: !798)
!798 = !{!578, !591, !579, !613}
!799 = !DIImportedEntity(tag: DW_TAG_imported_declaration, scope: !57, entity: !800, file: !557, line: 251)
!800 = !DISubprogram(name: "wcstold", scope: !563, file: !563, line: 409, type: !801, flags: DIFlagPrototyped, spFlags: 0)
!801 = !DISubroutineType(types: !802)
!802 = !{!803, !590, !737}
!803 = !DIBasicType(name: "long double", size: 128, encoding: DW_ATE_float)
!804 = !DIImportedEntity(tag: DW_TAG_imported_declaration, scope: !57, entity: !805, file: !557, line: 260)
!805 = !DISubprogram(name: "wcstoll", linkageName: "__isoc23_wcstoll", scope: !563, file: !563, line: 508, type: !806, flags: DIFlagPrototyped, spFlags: 0)
!806 = !DISubroutineType(types: !807)
!807 = !{!808, !590, !737, !68}
!808 = !DIBasicType(name: "long long", size: 64, encoding: DW_ATE_signed)
!809 = !DIImportedEntity(tag: DW_TAG_imported_declaration, scope: !57, entity: !810, file: !557, line: 261)
!810 = !DISubprogram(name: "wcstoull", linkageName: "__isoc23_wcstoull", scope: !563, file: !563, line: 513, type: !811, flags: DIFlagPrototyped, spFlags: 0)
!811 = !DISubroutineType(types: !812)
!812 = !{!813, !590, !737, !68}
!813 = !DIBasicType(name: "unsigned long long", size: 64, encoding: DW_ATE_unsigned)
!814 = !DIImportedEntity(tag: DW_TAG_imported_declaration, scope: !43, entity: !800, file: !557, line: 267)
!815 = !DIImportedEntity(tag: DW_TAG_imported_declaration, scope: !43, entity: !805, file: !557, line: 268)
!816 = !DIImportedEntity(tag: DW_TAG_imported_declaration, scope: !43, entity: !810, file: !557, line: 269)
!817 = !DIImportedEntity(tag: DW_TAG_imported_declaration, scope: !43, entity: !740, file: !557, line: 283)
!818 = !DIImportedEntity(tag: DW_TAG_imported_declaration, scope: !43, entity: !665, file: !557, line: 286)
!819 = !DIImportedEntity(tag: DW_TAG_imported_declaration, scope: !43, entity: !671, file: !557, line: 289)
!820 = !DIImportedEntity(tag: DW_TAG_imported_declaration, scope: !43, entity: !679, file: !557, line: 292)
!821 = !DIImportedEntity(tag: DW_TAG_imported_declaration, scope: !43, entity: !800, file: !557, line: 296)
!822 = !DIImportedEntity(tag: DW_TAG_imported_declaration, scope: !43, entity: !805, file: !557, line: 297)
!823 = !DIImportedEntity(tag: DW_TAG_imported_declaration, scope: !43, entity: !810, file: !557, line: 298)
!824 = !DIImportedEntity(tag: DW_TAG_imported_declaration, scope: !43, entity: !825, file: !826, line: 66)
!825 = !DICompositeType(tag: DW_TAG_class_type, name: "exception_ptr", scope: !827, file: !826, line: 97, size: 64, flags: DIFlagFwdDecl | DIFlagNonTrivial, identifier: "_ZTSNSt15__exception_ptr13exception_ptrE")
!826 = !DIFile(filename: "/usr/lib/gcc/x86_64-linux-gnu/13/../../../../include/c++/13/bits/exception_ptr.h", directory: "", checksumkind: CSK_MD5, checksum: "314ad14748ccb9ff85c65d17ebb0828b")
!827 = !DINamespace(name: "__exception_ptr", scope: !43)
!828 = !DIImportedEntity(tag: DW_TAG_imported_declaration, scope: !827, entity: !829, file: !826, line: 85)
!829 = !DISubprogram(name: "rethrow_exception", linkageName: "_ZSt17rethrow_exceptionNSt15__exception_ptr13exception_ptrE", scope: !43, file: !826, line: 81, type: !830, flags: DIFlagPrototyped | DIFlagNoReturn, spFlags: 0)
!830 = !DISubroutineType(types: !831)
!831 = !{null, !825}
!832 = !DIImportedEntity(tag: DW_TAG_imported_declaration, scope: !43, entity: !833, file: !826, line: 243)
!833 = !DISubprogram(name: "swap", linkageName: "_ZNSt15__exception_ptr4swapERNS_13exception_ptrES1_", scope: !827, file: !826, line: 230, type: !834, flags: DIFlagPrototyped, spFlags: 0)
!834 = !DISubroutineType(types: !835)
!835 = !{null, !836, !836}
!836 = !DIDerivedType(tag: DW_TAG_reference_type, baseType: !825, size: 64)
!837 = !DIImportedEntity(tag: DW_TAG_imported_declaration, scope: !43, entity: !838, file: !840, line: 53)
!838 = !DICompositeType(tag: DW_TAG_structure_type, name: "lconv", file: !839, line: 51, size: 768, flags: DIFlagFwdDecl, identifier: "_ZTS5lconv")
!839 = !DIFile(filename: "/usr/include/locale.h", directory: "", checksumkind: CSK_MD5, checksum: "23ebf40dea0ab9a74daf64a0eaa99518")
!840 = !DIFile(filename: "/usr/lib/gcc/x86_64-linux-gnu/13/../../../../include/c++/13/clocale", directory: "")
!841 = !DIImportedEntity(tag: DW_TAG_imported_declaration, scope: !43, entity: !842, file: !840, line: 54)
!842 = !DISubprogram(name: "setlocale", scope: !839, file: !839, line: 122, type: !843, flags: DIFlagPrototyped, spFlags: 0)
!843 = !DISubroutineType(types: !844)
!844 = !{!685, !68, !514}
!845 = !DIImportedEntity(tag: DW_TAG_imported_declaration, scope: !43, entity: !846, file: !840, line: 55)
!846 = !DISubprogram(name: "localeconv", scope: !839, file: !839, line: 125, type: !847, flags: DIFlagPrototyped, spFlags: 0)
!847 = !DISubroutineType(types: !848)
!848 = !{!849}
!849 = !DIDerivedType(tag: DW_TAG_pointer_type, baseType: !838, size: 64)
!850 = !DIImportedEntity(tag: DW_TAG_imported_declaration, scope: !43, entity: !851, file: !855, line: 64)
!851 = !DISubprogram(name: "isalnum", scope: !852, file: !852, line: 108, type: !853, flags: DIFlagPrototyped, spFlags: 0)
!852 = !DIFile(filename: "/usr/include/ctype.h", directory: "", checksumkind: CSK_MD5, checksum: "43fd45dcf96e8fb7d8f14700096497c7")
!853 = !DISubroutineType(types: !854)
!854 = !{!68, !68}
!855 = !DIFile(filename: "/usr/lib/gcc/x86_64-linux-gnu/13/../../../../include/c++/13/cctype", directory: "")
!856 = !DIImportedEntity(tag: DW_TAG_imported_declaration, scope: !43, entity: !857, file: !855, line: 65)
!857 = !DISubprogram(name: "isalpha", scope: !852, file: !852, line: 109, type: !853, flags: DIFlagPrototyped, spFlags: 0)
!858 = !DIImportedEntity(tag: DW_TAG_imported_declaration, scope: !43, entity: !859, file: !855, line: 66)
!859 = !DISubprogram(name: "iscntrl", scope: !852, file: !852, line: 110, type: !853, flags: DIFlagPrototyped, spFlags: 0)
!860 = !DIImportedEntity(tag: DW_TAG_imported_declaration, scope: !43, entity: !861, file: !855, line: 67)
!861 = !DISubprogram(name: "isdigit", scope: !852, file: !852, line: 111, type: !853, flags: DIFlagPrototyped, spFlags: 0)
!862 = !DIImportedEntity(tag: DW_TAG_imported_declaration, scope: !43, entity: !863, file: !855, line: 68)
!863 = !DISubprogram(name: "isgraph", scope: !852, file: !852, line: 113, type: !853, flags: DIFlagPrototyped, spFlags: 0)
!864 = !DIImportedEntity(tag: DW_TAG_imported_declaration, scope: !43, entity: !865, file: !855, line: 69)
!865 = !DISubprogram(name: "islower", scope: !852, file: !852, line: 112, type: !853, flags: DIFlagPrototyped, spFlags: 0)
!866 = !DIImportedEntity(tag: DW_TAG_imported_declaration, scope: !43, entity: !867, file: !855, line: 70)
!867 = !DISubprogram(name: "isprint", scope: !852, file: !852, line: 114, type: !853, flags: DIFlagPrototyped, spFlags: 0)
!868 = !DIImportedEntity(tag: DW_TAG_imported_declaration, scope: !43, entity: !869, file: !855, line: 71)
!869 = !DISubprogram(name: "ispunct", scope: !852, file: !852, line: 115, type: !853, flags: DIFlagPrototyped, spFlags: 0)
!870 = !DIImportedEntity(tag: DW_TAG_imported_declaration, scope: !43, entity: !871, file: !855, line: 72)
!871 = !DISubprogram(name: "isspace", scope: !852, file: !852, line: 116, type: !853, flags: DIFlagPrototyped, spFlags: 0)
!872 = !DIImportedEntity(tag: DW_TAG_imported_declaration, scope: !43, entity: !873, file: !855, line: 73)
!873 = !DISubprogram(name: "isupper", scope: !852, file: !852, line: 117, type: !853, flags: DIFlagPrototyped, spFlags: 0)
!874 = !DIImportedEntity(tag: DW_TAG_imported_declaration, scope: !43, entity: !875, file: !855, line: 74)
!875 = !DISubprogram(name: "isxdigit", scope: !852, file: !852, line: 118, type: !853, flags: DIFlagPrototyped, spFlags: 0)
!876 = !DIImportedEntity(tag: DW_TAG_imported_declaration, scope: !43, entity: !877, file: !855, line: 75)
!877 = !DISubprogram(name: "tolower", scope: !852, file: !852, line: 122, type: !853, flags: DIFlagPrototyped, spFlags: 0)
!878 = !DIImportedEntity(tag: DW_TAG_imported_declaration, scope: !43, entity: !879, file: !855, line: 76)
!879 = !DISubprogram(name: "toupper", scope: !852, file: !852, line: 125, type: !853, flags: DIFlagPrototyped, spFlags: 0)
!880 = !DIImportedEntity(tag: DW_TAG_imported_declaration, scope: !43, entity: !881, file: !855, line: 87)
!881 = !DISubprogram(name: "isblank", scope: !852, file: !852, line: 130, type: !853, flags: DIFlagPrototyped, spFlags: 0)
!882 = !DIImportedEntity(tag: DW_TAG_imported_module, scope: !883, entity: !884, file: !885, line: 58)
!883 = !DINamespace(name: "__gnu_debug", scope: null)
!884 = !DINamespace(name: "__debug", scope: !43)
!885 = !DIFile(filename: "/usr/lib/gcc/x86_64-linux-gnu/13/../../../../include/c++/13/debug/debug.h", directory: "", checksumkind: CSK_MD5, checksum: "752210a319f5f5d356cc29cd1ce3cdc7")
!886 = !DIImportedEntity(tag: DW_TAG_imported_declaration, scope: !43, entity: !887, file: !889, line: 52)
!887 = !DISubprogram(name: "abs", scope: !888, file: !888, line: 980, type: !853, flags: DIFlagPrototyped, spFlags: 0)
!888 = !DIFile(filename: "/usr/include/stdlib.h", directory: "", checksumkind: CSK_MD5, checksum: "7fa2ecb2348a66f8b44ab9a15abd0b72")
!889 = !DIFile(filename: "/usr/lib/gcc/x86_64-linux-gnu/13/../../../../include/c++/13/bits/std_abs.h", directory: "")
!890 = !DIImportedEntity(tag: DW_TAG_imported_declaration, scope: !43, entity: !891, file: !893, line: 131)
!891 = !DIDerivedType(tag: DW_TAG_typedef, name: "div_t", file: !888, line: 63, baseType: !892)
!892 = !DICompositeType(tag: DW_TAG_structure_type, file: !888, line: 59, size: 64, flags: DIFlagFwdDecl, identifier: "_ZTS5div_t")
!893 = !DIFile(filename: "/usr/lib/gcc/x86_64-linux-gnu/13/../../../../include/c++/13/cstdlib", directory: "")
!894 = !DIImportedEntity(tag: DW_TAG_imported_declaration, scope: !43, entity: !895, file: !893, line: 132)
!895 = !DIDerivedType(tag: DW_TAG_typedef, name: "ldiv_t", file: !888, line: 71, baseType: !896)
!896 = distinct !DICompositeType(tag: DW_TAG_structure_type, file: !888, line: 67, size: 128, flags: DIFlagTypePassByValue, elements: !897, identifier: "_ZTS6ldiv_t")
!897 = !{!898, !899}
!898 = !DIDerivedType(tag: DW_TAG_member, name: "quot", scope: !896, file: !888, line: 69, baseType: !752, size: 64)
!899 = !DIDerivedType(tag: DW_TAG_member, name: "rem", scope: !896, file: !888, line: 70, baseType: !752, size: 64, offset: 64)
!900 = !DIImportedEntity(tag: DW_TAG_imported_declaration, scope: !43, entity: !901, file: !893, line: 134)
!901 = !DISubprogram(name: "abort", scope: !888, file: !888, line: 730, type: !902, flags: DIFlagPrototyped | DIFlagNoReturn, spFlags: 0)
!902 = !DISubroutineType(types: !903)
!903 = !{null}
!904 = !DIImportedEntity(tag: DW_TAG_imported_declaration, scope: !43, entity: !905, file: !893, line: 136)
!905 = !DISubprogram(name: "aligned_alloc", scope: !888, file: !888, line: 724, type: !906, flags: DIFlagPrototyped, spFlags: 0)
!906 = !DISubroutineType(types: !907)
!907 = !{!662, !613, !613}
!908 = !DIImportedEntity(tag: DW_TAG_imported_declaration, scope: !43, entity: !909, file: !893, line: 138)
!909 = !DISubprogram(name: "atexit", scope: !888, file: !888, line: 734, type: !910, flags: DIFlagPrototyped, spFlags: 0)
!910 = !DISubroutineType(types: !911)
!911 = !{!68, !912}
!912 = !DIDerivedType(tag: DW_TAG_pointer_type, baseType: !902, size: 64)
!913 = !DIImportedEntity(tag: DW_TAG_imported_declaration, scope: !43, entity: !914, file: !893, line: 141)
!914 = !DISubprogram(name: "at_quick_exit", scope: !888, file: !888, line: 739, type: !910, flags: DIFlagPrototyped, spFlags: 0)
!915 = !DIImportedEntity(tag: DW_TAG_imported_declaration, scope: !43, entity: !916, file: !893, line: 144)
!916 = !DISubprogram(name: "atof", scope: !888, file: !888, line: 102, type: !917, flags: DIFlagPrototyped, spFlags: 0)
!917 = !DISubroutineType(types: !918)
!918 = !{!736, !514}
!919 = !DIImportedEntity(tag: DW_TAG_imported_declaration, scope: !43, entity: !920, file: !893, line: 145)
!920 = !DISubprogram(name: "atoi", scope: !888, file: !888, line: 105, type: !921, flags: DIFlagPrototyped, spFlags: 0)
!921 = !DISubroutineType(types: !922)
!922 = !{!68, !514}
!923 = !DIImportedEntity(tag: DW_TAG_imported_declaration, scope: !43, entity: !924, file: !893, line: 146)
!924 = !DISubprogram(name: "atol", scope: !888, file: !888, line: 108, type: !925, flags: DIFlagPrototyped, spFlags: 0)
!925 = !DISubroutineType(types: !926)
!926 = !{!752, !514}
!927 = !DIImportedEntity(tag: DW_TAG_imported_declaration, scope: !43, entity: !928, file: !893, line: 147)
!928 = !DISubprogram(name: "bsearch", scope: !888, file: !888, line: 960, type: !929, flags: DIFlagPrototyped, spFlags: 0)
!929 = !DISubroutineType(types: !930)
!930 = !{!662, !116, !116, !613, !613, !931}
!931 = !DIDerivedType(tag: DW_TAG_typedef, name: "__compar_fn_t", file: !888, line: 948, baseType: !932)
!932 = !DIDerivedType(tag: DW_TAG_pointer_type, baseType: !933, size: 64)
!933 = !DISubroutineType(types: !934)
!934 = !{!68, !116, !116}
!935 = !DIImportedEntity(tag: DW_TAG_imported_declaration, scope: !43, entity: !936, file: !893, line: 148)
!936 = !DISubprogram(name: "calloc", scope: !888, file: !888, line: 675, type: !906, flags: DIFlagPrototyped, spFlags: 0)
!937 = !DIImportedEntity(tag: DW_TAG_imported_declaration, scope: !43, entity: !938, file: !893, line: 149)
!938 = !DISubprogram(name: "div", scope: !888, file: !888, line: 992, type: !939, flags: DIFlagPrototyped, spFlags: 0)
!939 = !DISubroutineType(types: !940)
!940 = !{!891, !68, !68}
!941 = !DIImportedEntity(tag: DW_TAG_imported_declaration, scope: !43, entity: !942, file: !893, line: 150)
!942 = !DISubprogram(name: "exit", scope: !888, file: !888, line: 756, type: !943, flags: DIFlagPrototyped | DIFlagNoReturn, spFlags: 0)
!943 = !DISubroutineType(types: !944)
!944 = !{null, !68}
!945 = !DIImportedEntity(tag: DW_TAG_imported_declaration, scope: !43, entity: !946, file: !893, line: 151)
!946 = !DISubprogram(name: "free", scope: !888, file: !888, line: 687, type: !947, flags: DIFlagPrototyped, spFlags: 0)
!947 = !DISubroutineType(types: !948)
!948 = !{null, !662}
!949 = !DIImportedEntity(tag: DW_TAG_imported_declaration, scope: !43, entity: !950, file: !893, line: 152)
!950 = !DISubprogram(name: "getenv", scope: !888, file: !888, line: 773, type: !951, flags: DIFlagPrototyped, spFlags: 0)
!951 = !DISubroutineType(types: !952)
!952 = !{!685, !514}
!953 = !DIImportedEntity(tag: DW_TAG_imported_declaration, scope: !43, entity: !954, file: !893, line: 153)
!954 = !DISubprogram(name: "labs", scope: !888, file: !888, line: 981, type: !955, flags: DIFlagPrototyped, spFlags: 0)
!955 = !DISubroutineType(types: !956)
!956 = !{!752, !752}
!957 = !DIImportedEntity(tag: DW_TAG_imported_declaration, scope: !43, entity: !958, file: !893, line: 154)
!958 = !DISubprogram(name: "ldiv", scope: !888, file: !888, line: 994, type: !959, flags: DIFlagPrototyped, spFlags: 0)
!959 = !DISubroutineType(types: !960)
!960 = !{!895, !752, !752}
!961 = !DIImportedEntity(tag: DW_TAG_imported_declaration, scope: !43, entity: !962, file: !893, line: 155)
!962 = !DISubprogram(name: "malloc", scope: !888, file: !888, line: 672, type: !963, flags: DIFlagPrototyped, spFlags: 0)
!963 = !DISubroutineType(types: !964)
!964 = !{!662, !613}
!965 = !DIImportedEntity(tag: DW_TAG_imported_declaration, scope: !43, entity: !966, file: !893, line: 157)
!966 = !DISubprogram(name: "mblen", scope: !888, file: !888, line: 1062, type: !967, flags: DIFlagPrototyped, spFlags: 0)
!967 = !DISubroutineType(types: !968)
!968 = !{!68, !514, !613}
!969 = !DIImportedEntity(tag: DW_TAG_imported_declaration, scope: !43, entity: !970, file: !893, line: 158)
!970 = !DISubprogram(name: "mbstowcs", scope: !888, file: !888, line: 1073, type: !971, flags: DIFlagPrototyped, spFlags: 0)
!971 = !DISubroutineType(types: !972)
!972 = !{!613, !580, !615, !613}
!973 = !DIImportedEntity(tag: DW_TAG_imported_declaration, scope: !43, entity: !974, file: !893, line: 159)
!974 = !DISubprogram(name: "mbtowc", scope: !888, file: !888, line: 1065, type: !975, flags: DIFlagPrototyped, spFlags: 0)
!975 = !DISubroutineType(types: !976)
!976 = !{!68, !580, !615, !613}
!977 = !DIImportedEntity(tag: DW_TAG_imported_declaration, scope: !43, entity: !978, file: !893, line: 161)
!978 = !DISubprogram(name: "qsort", scope: !888, file: !888, line: 970, type: !979, flags: DIFlagPrototyped, spFlags: 0)
!979 = !DISubroutineType(types: !980)
!980 = !{null, !662, !613, !613, !931}
!981 = !DIImportedEntity(tag: DW_TAG_imported_declaration, scope: !43, entity: !982, file: !893, line: 164)
!982 = !DISubprogram(name: "quick_exit", scope: !888, file: !888, line: 762, type: !943, flags: DIFlagPrototyped | DIFlagNoReturn, spFlags: 0)
!983 = !DIImportedEntity(tag: DW_TAG_imported_declaration, scope: !43, entity: !984, file: !893, line: 167)
!984 = !DISubprogram(name: "rand", scope: !888, file: !888, line: 573, type: !985, flags: DIFlagPrototyped, spFlags: 0)
!985 = !DISubroutineType(types: !986)
!986 = !{!68}
!987 = !DIImportedEntity(tag: DW_TAG_imported_declaration, scope: !43, entity: !988, file: !893, line: 168)
!988 = !DISubprogram(name: "realloc", scope: !888, file: !888, line: 683, type: !989, flags: DIFlagPrototyped, spFlags: 0)
!989 = !DISubroutineType(types: !990)
!990 = !{!662, !662, !613}
!991 = !DIImportedEntity(tag: DW_TAG_imported_declaration, scope: !43, entity: !992, file: !893, line: 169)
!992 = !DISubprogram(name: "srand", scope: !888, file: !888, line: 575, type: !993, flags: DIFlagPrototyped, spFlags: 0)
!993 = !DISubroutineType(types: !994)
!994 = !{null, !554}
!995 = !DIImportedEntity(tag: DW_TAG_imported_declaration, scope: !43, entity: !996, file: !893, line: 170)
!996 = !DISubprogram(name: "strtod", scope: !888, file: !888, line: 118, type: !997, flags: DIFlagPrototyped, spFlags: 0)
!997 = !DISubroutineType(types: !998)
!998 = !{!736, !615, !999}
!999 = !DIDerivedType(tag: DW_TAG_restrict_type, baseType: !1000)
!1000 = !DIDerivedType(tag: DW_TAG_pointer_type, baseType: !685, size: 64)
!1001 = !DIImportedEntity(tag: DW_TAG_imported_declaration, scope: !43, entity: !1002, file: !893, line: 171)
!1002 = !DISubprogram(name: "strtol", linkageName: "__isoc23_strtol", scope: !888, file: !888, line: 215, type: !1003, flags: DIFlagPrototyped, spFlags: 0)
!1003 = !DISubroutineType(types: !1004)
!1004 = !{!752, !615, !999, !68}
!1005 = !DIImportedEntity(tag: DW_TAG_imported_declaration, scope: !43, entity: !1006, file: !893, line: 172)
!1006 = !DISubprogram(name: "strtoul", linkageName: "__isoc23_strtoul", scope: !888, file: !888, line: 219, type: !1007, flags: DIFlagPrototyped, spFlags: 0)
!1007 = !DISubroutineType(types: !1008)
!1008 = !{!115, !615, !999, !68}
!1009 = !DIImportedEntity(tag: DW_TAG_imported_declaration, scope: !43, entity: !1010, file: !893, line: 173)
!1010 = !DISubprogram(name: "system", scope: !888, file: !888, line: 923, type: !921, flags: DIFlagPrototyped, spFlags: 0)
!1011 = !DIImportedEntity(tag: DW_TAG_imported_declaration, scope: !43, entity: !1012, file: !893, line: 175)
!1012 = !DISubprogram(name: "wcstombs", scope: !888, file: !888, line: 1077, type: !1013, flags: DIFlagPrototyped, spFlags: 0)
!1013 = !DISubroutineType(types: !1014)
!1014 = !{!613, !684, !590, !613}
!1015 = !DIImportedEntity(tag: DW_TAG_imported_declaration, scope: !43, entity: !1016, file: !893, line: 176)
!1016 = !DISubprogram(name: "wctomb", scope: !888, file: !888, line: 1069, type: !1017, flags: DIFlagPrototyped, spFlags: 0)
!1017 = !DISubroutineType(types: !1018)
!1018 = !{!68, !685, !579}
!1019 = !DIImportedEntity(tag: DW_TAG_imported_declaration, scope: !57, entity: !1020, file: !893, line: 204)
!1020 = !DIDerivedType(tag: DW_TAG_typedef, name: "lldiv_t", file: !888, line: 81, baseType: !1021)
!1021 = distinct !DICompositeType(tag: DW_TAG_structure_type, file: !888, line: 77, size: 128, flags: DIFlagTypePassByValue, elements: !1022, identifier: "_ZTS7lldiv_t")
!1022 = !{!1023, !1024}
!1023 = !DIDerivedType(tag: DW_TAG_member, name: "quot", scope: !1021, file: !888, line: 79, baseType: !808, size: 64)
!1024 = !DIDerivedType(tag: DW_TAG_member, name: "rem", scope: !1021, file: !888, line: 80, baseType: !808, size: 64, offset: 64)
!1025 = !DIImportedEntity(tag: DW_TAG_imported_declaration, scope: !57, entity: !1026, file: !893, line: 210)
!1026 = !DISubprogram(name: "_Exit", scope: !888, file: !888, line: 768, type: !943, flags: DIFlagPrototyped | DIFlagNoReturn, spFlags: 0)
!1027 = !DIImportedEntity(tag: DW_TAG_imported_declaration, scope: !57, entity: !1028, file: !893, line: 214)
!1028 = !DISubprogram(name: "llabs", scope: !888, file: !888, line: 984, type: !1029, flags: DIFlagPrototyped, spFlags: 0)
!1029 = !DISubroutineType(types: !1030)
!1030 = !{!808, !808}
!1031 = !DIImportedEntity(tag: DW_TAG_imported_declaration, scope: !57, entity: !1032, file: !893, line: 220)
!1032 = !DISubprogram(name: "lldiv", scope: !888, file: !888, line: 998, type: !1033, flags: DIFlagPrototyped, spFlags: 0)
!1033 = !DISubroutineType(types: !1034)
!1034 = !{!1020, !808, !808}
!1035 = !DIImportedEntity(tag: DW_TAG_imported_declaration, scope: !57, entity: !1036, file: !893, line: 231)
!1036 = !DISubprogram(name: "atoll", scope: !888, file: !888, line: 113, type: !1037, flags: DIFlagPrototyped, spFlags: 0)
!1037 = !DISubroutineType(types: !1038)
!1038 = !{!808, !514}
!1039 = !DIImportedEntity(tag: DW_TAG_imported_declaration, scope: !57, entity: !1040, file: !893, line: 232)
!1040 = !DISubprogram(name: "strtoll", linkageName: "__isoc23_strtoll", scope: !888, file: !888, line: 238, type: !1041, flags: DIFlagPrototyped, spFlags: 0)
!1041 = !DISubroutineType(types: !1042)
!1042 = !{!808, !615, !999, !68}
!1043 = !DIImportedEntity(tag: DW_TAG_imported_declaration, scope: !57, entity: !1044, file: !893, line: 233)
!1044 = !DISubprogram(name: "strtoull", linkageName: "__isoc23_strtoull", scope: !888, file: !888, line: 243, type: !1045, flags: DIFlagPrototyped, spFlags: 0)
!1045 = !DISubroutineType(types: !1046)
!1046 = !{!813, !615, !999, !68}
!1047 = !DIImportedEntity(tag: DW_TAG_imported_declaration, scope: !57, entity: !1048, file: !893, line: 235)
!1048 = !DISubprogram(name: "strtof", scope: !888, file: !888, line: 124, type: !1049, flags: DIFlagPrototyped, spFlags: 0)
!1049 = !DISubroutineType(types: !1050)
!1050 = !{!743, !615, !999}
!1051 = !DIImportedEntity(tag: DW_TAG_imported_declaration, scope: !57, entity: !1052, file: !893, line: 236)
!1052 = !DISubprogram(name: "strtold", scope: !888, file: !888, line: 127, type: !1053, flags: DIFlagPrototyped, spFlags: 0)
!1053 = !DISubroutineType(types: !1054)
!1054 = !{!803, !615, !999}
!1055 = !DIImportedEntity(tag: DW_TAG_imported_declaration, scope: !43, entity: !1020, file: !893, line: 244)
!1056 = !DIImportedEntity(tag: DW_TAG_imported_declaration, scope: !43, entity: !1026, file: !893, line: 246)
!1057 = !DIImportedEntity(tag: DW_TAG_imported_declaration, scope: !43, entity: !1028, file: !893, line: 248)
!1058 = !DIImportedEntity(tag: DW_TAG_imported_declaration, scope: !43, entity: !1059, file: !893, line: 249)
!1059 = !DISubprogram(name: "div", linkageName: "_ZN9__gnu_cxx3divExx", scope: !57, file: !893, line: 217, type: !1033, flags: DIFlagPrototyped, spFlags: 0)
!1060 = !DIImportedEntity(tag: DW_TAG_imported_declaration, scope: !43, entity: !1032, file: !893, line: 250)
!1061 = !DIImportedEntity(tag: DW_TAG_imported_declaration, scope: !43, entity: !1036, file: !893, line: 252)
!1062 = !DIImportedEntity(tag: DW_TAG_imported_declaration, scope: !43, entity: !1048, file: !893, line: 253)
!1063 = !DIImportedEntity(tag: DW_TAG_imported_declaration, scope: !43, entity: !1040, file: !893, line: 254)
!1064 = !DIImportedEntity(tag: DW_TAG_imported_declaration, scope: !43, entity: !1044, file: !893, line: 255)
!1065 = !DIImportedEntity(tag: DW_TAG_imported_declaration, scope: !43, entity: !1052, file: !893, line: 256)
!1066 = !DIImportedEntity(tag: DW_TAG_imported_declaration, scope: !43, entity: !1067, file: !1069, line: 98)
!1067 = !DIDerivedType(tag: DW_TAG_typedef, name: "FILE", file: !1068, line: 7, baseType: !573)
!1068 = !DIFile(filename: "/usr/include/x86_64-linux-gnu/bits/types/FILE.h", directory: "", checksumkind: CSK_MD5, checksum: "571f9fb6223c42439075fdde11a0de5d")
!1069 = !DIFile(filename: "/usr/lib/gcc/x86_64-linux-gnu/13/../../../../include/c++/13/cstdio", directory: "")
!1070 = !DIImportedEntity(tag: DW_TAG_imported_declaration, scope: !43, entity: !1071, file: !1069, line: 99)
!1071 = !DIDerivedType(tag: DW_TAG_typedef, name: "fpos_t", file: !1072, line: 85, baseType: !1073)
!1072 = !DIFile(filename: "/usr/include/stdio.h", directory: "", checksumkind: CSK_MD5, checksum: "1e435c46987a169d9f9186f63a512303")
!1073 = !DIDerivedType(tag: DW_TAG_typedef, name: "__fpos_t", file: !1074, line: 14, baseType: !1075)
!1074 = !DIFile(filename: "/usr/include/x86_64-linux-gnu/bits/types/__fpos_t.h", directory: "", checksumkind: CSK_MD5, checksum: "32de8bdaf3551a6c0a9394f9af4389ce")
!1075 = !DICompositeType(tag: DW_TAG_structure_type, name: "_G_fpos_t", file: !1074, line: 10, size: 128, flags: DIFlagFwdDecl, identifier: "_ZTS9_G_fpos_t")
!1076 = !DIImportedEntity(tag: DW_TAG_imported_declaration, scope: !43, entity: !1077, file: !1069, line: 101)
!1077 = !DISubprogram(name: "clearerr", scope: !1072, file: !1072, line: 860, type: !1078, flags: DIFlagPrototyped, spFlags: 0)
!1078 = !DISubroutineType(types: !1079)
!1079 = !{null, !1080}
!1080 = !DIDerivedType(tag: DW_TAG_pointer_type, baseType: !1067, size: 64)
!1081 = !DIImportedEntity(tag: DW_TAG_imported_declaration, scope: !43, entity: !1082, file: !1069, line: 102)
!1082 = !DISubprogram(name: "fclose", scope: !1072, file: !1072, line: 184, type: !1083, flags: DIFlagPrototyped, spFlags: 0)
!1083 = !DISubroutineType(types: !1084)
!1084 = !{!68, !1080}
!1085 = !DIImportedEntity(tag: DW_TAG_imported_declaration, scope: !43, entity: !1086, file: !1069, line: 103)
!1086 = !DISubprogram(name: "feof", scope: !1072, file: !1072, line: 862, type: !1083, flags: DIFlagPrototyped, spFlags: 0)
!1087 = !DIImportedEntity(tag: DW_TAG_imported_declaration, scope: !43, entity: !1088, file: !1069, line: 104)
!1088 = !DISubprogram(name: "ferror", scope: !1072, file: !1072, line: 864, type: !1083, flags: DIFlagPrototyped, spFlags: 0)
!1089 = !DIImportedEntity(tag: DW_TAG_imported_declaration, scope: !43, entity: !1090, file: !1069, line: 105)
!1090 = !DISubprogram(name: "fflush", scope: !1072, file: !1072, line: 236, type: !1083, flags: DIFlagPrototyped, spFlags: 0)
!1091 = !DIImportedEntity(tag: DW_TAG_imported_declaration, scope: !43, entity: !1092, file: !1069, line: 106)
!1092 = !DISubprogram(name: "fgetc", scope: !1072, file: !1072, line: 575, type: !1083, flags: DIFlagPrototyped, spFlags: 0)
!1093 = !DIImportedEntity(tag: DW_TAG_imported_declaration, scope: !43, entity: !1094, file: !1069, line: 107)
!1094 = !DISubprogram(name: "fgetpos", scope: !1072, file: !1072, line: 829, type: !1095, flags: DIFlagPrototyped, spFlags: 0)
!1095 = !DISubroutineType(types: !1096)
!1096 = !{!68, !1097, !1098}
!1097 = !DIDerivedType(tag: DW_TAG_restrict_type, baseType: !1080)
!1098 = !DIDerivedType(tag: DW_TAG_restrict_type, baseType: !1099)
!1099 = !DIDerivedType(tag: DW_TAG_pointer_type, baseType: !1071, size: 64)
!1100 = !DIImportedEntity(tag: DW_TAG_imported_declaration, scope: !43, entity: !1101, file: !1069, line: 108)
!1101 = !DISubprogram(name: "fgets", scope: !1072, file: !1072, line: 654, type: !1102, flags: DIFlagPrototyped, spFlags: 0)
!1102 = !DISubroutineType(types: !1103)
!1103 = !{!685, !684, !68, !1097}
!1104 = !DIImportedEntity(tag: DW_TAG_imported_declaration, scope: !43, entity: !1105, file: !1069, line: 109)
!1105 = !DISubprogram(name: "fopen", scope: !1072, file: !1072, line: 264, type: !1106, flags: DIFlagPrototyped, spFlags: 0)
!1106 = !DISubroutineType(types: !1107)
!1107 = !{!1080, !615, !615}
!1108 = !DIImportedEntity(tag: DW_TAG_imported_declaration, scope: !43, entity: !1109, file: !1069, line: 110)
!1109 = !DISubprogram(name: "fprintf", scope: !1072, file: !1072, line: 357, type: !1110, flags: DIFlagPrototyped, spFlags: 0)
!1110 = !DISubroutineType(types: !1111)
!1111 = !{!68, !1097, !615, null}
!1112 = !DIImportedEntity(tag: DW_TAG_imported_declaration, scope: !43, entity: !1113, file: !1069, line: 111)
!1113 = !DISubprogram(name: "fputc", scope: !1072, file: !1072, line: 611, type: !1114, flags: DIFlagPrototyped, spFlags: 0)
!1114 = !DISubroutineType(types: !1115)
!1115 = !{!68, !68, !1080}
!1116 = !DIImportedEntity(tag: DW_TAG_imported_declaration, scope: !43, entity: !1117, file: !1069, line: 112)
!1117 = !DISubprogram(name: "fputs", scope: !1072, file: !1072, line: 717, type: !1118, flags: DIFlagPrototyped, spFlags: 0)
!1118 = !DISubroutineType(types: !1119)
!1119 = !{!68, !615, !1097}
!1120 = !DIImportedEntity(tag: DW_TAG_imported_declaration, scope: !43, entity: !1121, file: !1069, line: 113)
!1121 = !DISubprogram(name: "fread", scope: !1072, file: !1072, line: 738, type: !1122, flags: DIFlagPrototyped, spFlags: 0)
!1122 = !DISubroutineType(types: !1123)
!1123 = !{!613, !1124, !613, !613, !1097}
!1124 = !DIDerivedType(tag: DW_TAG_restrict_type, baseType: !662)
!1125 = !DIImportedEntity(tag: DW_TAG_imported_declaration, scope: !43, entity: !1126, file: !1069, line: 114)
!1126 = !DISubprogram(name: "freopen", scope: !1072, file: !1072, line: 271, type: !1127, flags: DIFlagPrototyped, spFlags: 0)
!1127 = !DISubroutineType(types: !1128)
!1128 = !{!1080, !615, !615, !1097}
!1129 = !DIImportedEntity(tag: DW_TAG_imported_declaration, scope: !43, entity: !1130, file: !1069, line: 115)
!1130 = !DISubprogram(name: "fscanf", linkageName: "__isoc23_fscanf", scope: !1072, file: !1072, line: 442, type: !1110, flags: DIFlagPrototyped, spFlags: 0)
!1131 = !DIImportedEntity(tag: DW_TAG_imported_declaration, scope: !43, entity: !1132, file: !1069, line: 116)
!1132 = !DISubprogram(name: "fseek", scope: !1072, file: !1072, line: 779, type: !1133, flags: DIFlagPrototyped, spFlags: 0)
!1133 = !DISubroutineType(types: !1134)
!1134 = !{!68, !1080, !752, !68}
!1135 = !DIImportedEntity(tag: DW_TAG_imported_declaration, scope: !43, entity: !1136, file: !1069, line: 117)
!1136 = !DISubprogram(name: "fsetpos", scope: !1072, file: !1072, line: 835, type: !1137, flags: DIFlagPrototyped, spFlags: 0)
!1137 = !DISubroutineType(types: !1138)
!1138 = !{!68, !1080, !1139}
!1139 = !DIDerivedType(tag: DW_TAG_pointer_type, baseType: !1140, size: 64)
!1140 = !DIDerivedType(tag: DW_TAG_const_type, baseType: !1071)
!1141 = !DIImportedEntity(tag: DW_TAG_imported_declaration, scope: !43, entity: !1142, file: !1069, line: 118)
!1142 = !DISubprogram(name: "ftell", scope: !1072, file: !1072, line: 785, type: !1143, flags: DIFlagPrototyped, spFlags: 0)
!1143 = !DISubroutineType(types: !1144)
!1144 = !{!752, !1080}
!1145 = !DIImportedEntity(tag: DW_TAG_imported_declaration, scope: !43, entity: !1146, file: !1069, line: 119)
!1146 = !DISubprogram(name: "fwrite", scope: !1072, file: !1072, line: 745, type: !1147, flags: DIFlagPrototyped, spFlags: 0)
!1147 = !DISubroutineType(types: !1148)
!1148 = !{!613, !1149, !613, !613, !1097}
!1149 = !DIDerivedType(tag: DW_TAG_restrict_type, baseType: !116)
!1150 = !DIImportedEntity(tag: DW_TAG_imported_declaration, scope: !43, entity: !1151, file: !1069, line: 120)
!1151 = !DISubprogram(name: "getc", scope: !1072, file: !1072, line: 576, type: !1083, flags: DIFlagPrototyped, spFlags: 0)
!1152 = !DIImportedEntity(tag: DW_TAG_imported_declaration, scope: !43, entity: !1153, file: !1069, line: 121)
!1153 = !DISubprogram(name: "getchar", scope: !1072, file: !1072, line: 582, type: !985, flags: DIFlagPrototyped, spFlags: 0)
!1154 = !DIImportedEntity(tag: DW_TAG_imported_declaration, scope: !43, entity: !1155, file: !1069, line: 126)
!1155 = !DISubprogram(name: "perror", scope: !1072, file: !1072, line: 878, type: !1156, flags: DIFlagPrototyped, spFlags: 0)
!1156 = !DISubroutineType(types: !1157)
!1157 = !{null, !514}
!1158 = !DIImportedEntity(tag: DW_TAG_imported_declaration, scope: !43, entity: !1159, file: !1069, line: 127)
!1159 = !DISubprogram(name: "printf", scope: !1072, file: !1072, line: 363, type: !1160, flags: DIFlagPrototyped, spFlags: 0)
!1160 = !DISubroutineType(types: !1161)
!1161 = !{!68, !615, null}
!1162 = !DIImportedEntity(tag: DW_TAG_imported_declaration, scope: !43, entity: !1163, file: !1069, line: 128)
!1163 = !DISubprogram(name: "putc", scope: !1072, file: !1072, line: 612, type: !1114, flags: DIFlagPrototyped, spFlags: 0)
!1164 = !DIImportedEntity(tag: DW_TAG_imported_declaration, scope: !43, entity: !1165, file: !1069, line: 129)
!1165 = !DISubprogram(name: "putchar", scope: !1072, file: !1072, line: 618, type: !853, flags: DIFlagPrototyped, spFlags: 0)
!1166 = !DIImportedEntity(tag: DW_TAG_imported_declaration, scope: !43, entity: !1167, file: !1069, line: 130)
!1167 = !DISubprogram(name: "puts", scope: !1072, file: !1072, line: 724, type: !921, flags: DIFlagPrototyped, spFlags: 0)
!1168 = !DIImportedEntity(tag: DW_TAG_imported_declaration, scope: !43, entity: !1169, file: !1069, line: 131)
!1169 = !DISubprogram(name: "remove", scope: !1072, file: !1072, line: 158, type: !921, flags: DIFlagPrototyped, spFlags: 0)
!1170 = !DIImportedEntity(tag: DW_TAG_imported_declaration, scope: !43, entity: !1171, file: !1069, line: 132)
!1171 = !DISubprogram(name: "rename", scope: !1072, file: !1072, line: 160, type: !1172, flags: DIFlagPrototyped, spFlags: 0)
!1172 = !DISubroutineType(types: !1173)
!1173 = !{!68, !514, !514}
!1174 = !DIImportedEntity(tag: DW_TAG_imported_declaration, scope: !43, entity: !1175, file: !1069, line: 133)
!1175 = !DISubprogram(name: "rewind", scope: !1072, file: !1072, line: 790, type: !1078, flags: DIFlagPrototyped, spFlags: 0)
!1176 = !DIImportedEntity(tag: DW_TAG_imported_declaration, scope: !43, entity: !1177, file: !1069, line: 134)
!1177 = !DISubprogram(name: "scanf", linkageName: "__isoc23_scanf", scope: !1072, file: !1072, line: 445, type: !1160, flags: DIFlagPrototyped, spFlags: 0)
!1178 = !DIImportedEntity(tag: DW_TAG_imported_declaration, scope: !43, entity: !1179, file: !1069, line: 135)
!1179 = !DISubprogram(name: "setbuf", scope: !1072, file: !1072, line: 334, type: !1180, flags: DIFlagPrototyped, spFlags: 0)
!1180 = !DISubroutineType(types: !1181)
!1181 = !{null, !1097, !684}
!1182 = !DIImportedEntity(tag: DW_TAG_imported_declaration, scope: !43, entity: !1183, file: !1069, line: 136)
!1183 = !DISubprogram(name: "setvbuf", scope: !1072, file: !1072, line: 339, type: !1184, flags: DIFlagPrototyped, spFlags: 0)
!1184 = !DISubroutineType(types: !1185)
!1185 = !{!68, !1097, !684, !68, !613}
!1186 = !DIImportedEntity(tag: DW_TAG_imported_declaration, scope: !43, entity: !1187, file: !1069, line: 137)
!1187 = !DISubprogram(name: "sprintf", scope: !1072, file: !1072, line: 365, type: !1188, flags: DIFlagPrototyped, spFlags: 0)
!1188 = !DISubroutineType(types: !1189)
!1189 = !{!68, !684, !615, null}
!1190 = !DIImportedEntity(tag: DW_TAG_imported_declaration, scope: !43, entity: !1191, file: !1069, line: 138)
!1191 = !DISubprogram(name: "sscanf", linkageName: "__isoc23_sscanf", scope: !1072, file: !1072, line: 447, type: !1192, flags: DIFlagPrototyped, spFlags: 0)
!1192 = !DISubroutineType(types: !1193)
!1193 = !{!68, !615, !615, null}
!1194 = !DIImportedEntity(tag: DW_TAG_imported_declaration, scope: !43, entity: !1195, file: !1069, line: 139)
!1195 = !DISubprogram(name: "tmpfile", scope: !1072, file: !1072, line: 194, type: !1196, flags: DIFlagPrototyped, spFlags: 0)
!1196 = !DISubroutineType(types: !1197)
!1197 = !{!1080}
!1198 = !DIImportedEntity(tag: DW_TAG_imported_declaration, scope: !43, entity: !1199, file: !1069, line: 141)
!1199 = !DISubprogram(name: "tmpnam", scope: !1072, file: !1072, line: 211, type: !1200, flags: DIFlagPrototyped, spFlags: 0)
!1200 = !DISubroutineType(types: !1201)
!1201 = !{!685, !685}
!1202 = !DIImportedEntity(tag: DW_TAG_imported_declaration, scope: !43, entity: !1203, file: !1069, line: 143)
!1203 = !DISubprogram(name: "ungetc", scope: !1072, file: !1072, line: 731, type: !1114, flags: DIFlagPrototyped, spFlags: 0)
!1204 = !DIImportedEntity(tag: DW_TAG_imported_declaration, scope: !43, entity: !1205, file: !1069, line: 144)
!1205 = !DISubprogram(name: "vfprintf", scope: !1072, file: !1072, line: 372, type: !1206, flags: DIFlagPrototyped, spFlags: 0)
!1206 = !DISubroutineType(types: !1207)
!1207 = !{!68, !1097, !615, !656}
!1208 = !DIImportedEntity(tag: DW_TAG_imported_declaration, scope: !43, entity: !1209, file: !1069, line: 145)
!1209 = !DISubprogram(name: "vprintf", scope: !1072, file: !1072, line: 378, type: !1210, flags: DIFlagPrototyped, spFlags: 0)
!1210 = !DISubroutineType(types: !1211)
!1211 = !{!68, !615, !656}
!1212 = !DIImportedEntity(tag: DW_TAG_imported_declaration, scope: !43, entity: !1213, file: !1069, line: 146)
!1213 = !DISubprogram(name: "vsprintf", scope: !1072, file: !1072, line: 380, type: !1214, flags: DIFlagPrototyped, spFlags: 0)
!1214 = !DISubroutineType(types: !1215)
!1215 = !{!68, !684, !615, !656}
!1216 = !DIImportedEntity(tag: DW_TAG_imported_declaration, scope: !57, entity: !1217, file: !1069, line: 175)
!1217 = !DISubprogram(name: "snprintf", scope: !1072, file: !1072, line: 385, type: !1218, flags: DIFlagPrototyped, spFlags: 0)
!1218 = !DISubroutineType(types: !1219)
!1219 = !{!68, !684, !613, !615, null}
!1220 = !DIImportedEntity(tag: DW_TAG_imported_declaration, scope: !57, entity: !1221, file: !1069, line: 176)
!1221 = !DISubprogram(name: "vfscanf", linkageName: "__isoc23_vfscanf", scope: !1072, file: !1072, line: 511, type: !1206, flags: DIFlagPrototyped, spFlags: 0)
!1222 = !DIImportedEntity(tag: DW_TAG_imported_declaration, scope: !57, entity: !1223, file: !1069, line: 177)
!1223 = !DISubprogram(name: "vscanf", linkageName: "__isoc23_vscanf", scope: !1072, file: !1072, line: 516, type: !1210, flags: DIFlagPrototyped, spFlags: 0)
!1224 = !DIImportedEntity(tag: DW_TAG_imported_declaration, scope: !57, entity: !1225, file: !1069, line: 178)
!1225 = !DISubprogram(name: "vsnprintf", scope: !1072, file: !1072, line: 389, type: !1226, flags: DIFlagPrototyped, spFlags: 0)
!1226 = !DISubroutineType(types: !1227)
!1227 = !{!68, !684, !613, !615, !656}
!1228 = !DIImportedEntity(tag: DW_TAG_imported_declaration, scope: !57, entity: !1229, file: !1069, line: 179)
!1229 = !DISubprogram(name: "vsscanf", linkageName: "__isoc23_vsscanf", scope: !1072, file: !1072, line: 519, type: !1230, flags: DIFlagPrototyped, spFlags: 0)
!1230 = !DISubroutineType(types: !1231)
!1231 = !{!68, !615, !615, !656}
!1232 = !DIImportedEntity(tag: DW_TAG_imported_declaration, scope: !43, entity: !1217, file: !1069, line: 185)
!1233 = !DIImportedEntity(tag: DW_TAG_imported_declaration, scope: !43, entity: !1221, file: !1069, line: 186)
!1234 = !DIImportedEntity(tag: DW_TAG_imported_declaration, scope: !43, entity: !1223, file: !1069, line: 187)
!1235 = !DIImportedEntity(tag: DW_TAG_imported_declaration, scope: !43, entity: !1225, file: !1069, line: 188)
!1236 = !DIImportedEntity(tag: DW_TAG_imported_declaration, scope: !43, entity: !1229, file: !1069, line: 189)
!1237 = !DIImportedEntity(tag: DW_TAG_imported_declaration, scope: !43, entity: !1238, file: !1244, line: 58)
!1238 = !DIDerivedType(tag: DW_TAG_typedef, name: "max_align_t", file: !1239, line: 24, baseType: !1240)
!1239 = !DIFile(filename: "llvm-install/lib/clang/21/include/__stddef_max_align_t.h", directory: "/home/lekhana", checksumkind: CSK_MD5, checksum: "3c0a2f19d136d39aa835c737c7105def")
!1240 = distinct !DICompositeType(tag: DW_TAG_structure_type, file: !1239, line: 19, size: 256, flags: DIFlagTypePassByValue, elements: !1241, identifier: "_ZTS11max_align_t")
!1241 = !{!1242, !1243}
!1242 = !DIDerivedType(tag: DW_TAG_member, name: "__clang_max_align_nonce1", scope: !1240, file: !1239, line: 20, baseType: !808, size: 64, align: 64)
!1243 = !DIDerivedType(tag: DW_TAG_member, name: "__clang_max_align_nonce2", scope: !1240, file: !1239, line: 22, baseType: !803, size: 128, align: 128, offset: 128)
!1244 = !DIFile(filename: "/usr/lib/gcc/x86_64-linux-gnu/13/../../../../include/c++/13/cstddef", directory: "")
!1245 = !DIImportedEntity(tag: DW_TAG_imported_declaration, scope: !43, entity: !1246, file: !1252, line: 82)
!1246 = !DIDerivedType(tag: DW_TAG_typedef, name: "wctrans_t", file: !1247, line: 48, baseType: !1248)
!1247 = !DIFile(filename: "/usr/include/wctype.h", directory: "", checksumkind: CSK_MD5, checksum: "eff95da6508e8f67a3c7b77d9d8ab229")
!1248 = !DIDerivedType(tag: DW_TAG_pointer_type, baseType: !1249, size: 64)
!1249 = !DIDerivedType(tag: DW_TAG_const_type, baseType: !1250)
!1250 = !DIDerivedType(tag: DW_TAG_typedef, name: "__int32_t", file: !1251, line: 41, baseType: !68)
!1251 = !DIFile(filename: "/usr/include/x86_64-linux-gnu/bits/types.h", directory: "", checksumkind: CSK_MD5, checksum: "e1865d9fe29fe1b5ced550b7ba458f9e")
!1252 = !DIFile(filename: "/usr/lib/gcc/x86_64-linux-gnu/13/../../../../include/c++/13/cwctype", directory: "")
!1253 = !DIImportedEntity(tag: DW_TAG_imported_declaration, scope: !43, entity: !1254, file: !1252, line: 83)
!1254 = !DIDerivedType(tag: DW_TAG_typedef, name: "wctype_t", file: !1255, line: 38, baseType: !115)
!1255 = !DIFile(filename: "/usr/include/x86_64-linux-gnu/bits/wctype-wchar.h", directory: "", checksumkind: CSK_MD5, checksum: "7f19501745f9a1fbbace8f0f185de59a")
!1256 = !DIImportedEntity(tag: DW_TAG_imported_declaration, scope: !43, entity: !559, file: !1252, line: 84)
!1257 = !DIImportedEntity(tag: DW_TAG_imported_declaration, scope: !43, entity: !1258, file: !1252, line: 86)
!1258 = !DISubprogram(name: "iswalnum", scope: !1255, file: !1255, line: 95, type: !763, flags: DIFlagPrototyped, spFlags: 0)
!1259 = !DIImportedEntity(tag: DW_TAG_imported_declaration, scope: !43, entity: !1260, file: !1252, line: 87)
!1260 = !DISubprogram(name: "iswalpha", scope: !1255, file: !1255, line: 101, type: !763, flags: DIFlagPrototyped, spFlags: 0)
!1261 = !DIImportedEntity(tag: DW_TAG_imported_declaration, scope: !43, entity: !1262, file: !1252, line: 89)
!1262 = !DISubprogram(name: "iswblank", scope: !1255, file: !1255, line: 146, type: !763, flags: DIFlagPrototyped, spFlags: 0)
!1263 = !DIImportedEntity(tag: DW_TAG_imported_declaration, scope: !43, entity: !1264, file: !1252, line: 91)
!1264 = !DISubprogram(name: "iswcntrl", scope: !1255, file: !1255, line: 104, type: !763, flags: DIFlagPrototyped, spFlags: 0)
!1265 = !DIImportedEntity(tag: DW_TAG_imported_declaration, scope: !43, entity: !1266, file: !1252, line: 92)
!1266 = !DISubprogram(name: "iswctype", scope: !1255, file: !1255, line: 159, type: !1267, flags: DIFlagPrototyped, spFlags: 0)
!1267 = !DISubroutineType(types: !1268)
!1268 = !{!68, !559, !1254}
!1269 = !DIImportedEntity(tag: DW_TAG_imported_declaration, scope: !43, entity: !1270, file: !1252, line: 93)
!1270 = !DISubprogram(name: "iswdigit", scope: !1255, file: !1255, line: 108, type: !763, flags: DIFlagPrototyped, spFlags: 0)
!1271 = !DIImportedEntity(tag: DW_TAG_imported_declaration, scope: !43, entity: !1272, file: !1252, line: 94)
!1272 = !DISubprogram(name: "iswgraph", scope: !1255, file: !1255, line: 112, type: !763, flags: DIFlagPrototyped, spFlags: 0)
!1273 = !DIImportedEntity(tag: DW_TAG_imported_declaration, scope: !43, entity: !1274, file: !1252, line: 95)
!1274 = !DISubprogram(name: "iswlower", scope: !1255, file: !1255, line: 117, type: !763, flags: DIFlagPrototyped, spFlags: 0)
!1275 = !DIImportedEntity(tag: DW_TAG_imported_declaration, scope: !43, entity: !1276, file: !1252, line: 96)
!1276 = !DISubprogram(name: "iswprint", scope: !1255, file: !1255, line: 120, type: !763, flags: DIFlagPrototyped, spFlags: 0)
!1277 = !DIImportedEntity(tag: DW_TAG_imported_declaration, scope: !43, entity: !1278, file: !1252, line: 97)
!1278 = !DISubprogram(name: "iswpunct", scope: !1255, file: !1255, line: 125, type: !763, flags: DIFlagPrototyped, spFlags: 0)
!1279 = !DIImportedEntity(tag: DW_TAG_imported_declaration, scope: !43, entity: !1280, file: !1252, line: 98)
!1280 = !DISubprogram(name: "iswspace", scope: !1255, file: !1255, line: 130, type: !763, flags: DIFlagPrototyped, spFlags: 0)
!1281 = !DIImportedEntity(tag: DW_TAG_imported_declaration, scope: !43, entity: !1282, file: !1252, line: 99)
!1282 = !DISubprogram(name: "iswupper", scope: !1255, file: !1255, line: 135, type: !763, flags: DIFlagPrototyped, spFlags: 0)
!1283 = !DIImportedEntity(tag: DW_TAG_imported_declaration, scope: !43, entity: !1284, file: !1252, line: 100)
!1284 = !DISubprogram(name: "iswxdigit", scope: !1255, file: !1255, line: 140, type: !763, flags: DIFlagPrototyped, spFlags: 0)
!1285 = !DIImportedEntity(tag: DW_TAG_imported_declaration, scope: !43, entity: !1286, file: !1252, line: 101)
!1286 = !DISubprogram(name: "towctrans", scope: !1247, file: !1247, line: 55, type: !1287, flags: DIFlagPrototyped, spFlags: 0)
!1287 = !DISubroutineType(types: !1288)
!1288 = !{!559, !559, !1246}
!1289 = !DIImportedEntity(tag: DW_TAG_imported_declaration, scope: !43, entity: !1290, file: !1252, line: 102)
!1290 = !DISubprogram(name: "towlower", scope: !1255, file: !1255, line: 166, type: !1291, flags: DIFlagPrototyped, spFlags: 0)
!1291 = !DISubroutineType(types: !1292)
!1292 = !{!559, !559}
!1293 = !DIImportedEntity(tag: DW_TAG_imported_declaration, scope: !43, entity: !1294, file: !1252, line: 103)
!1294 = !DISubprogram(name: "towupper", scope: !1255, file: !1255, line: 169, type: !1291, flags: DIFlagPrototyped, spFlags: 0)
!1295 = !DIImportedEntity(tag: DW_TAG_imported_declaration, scope: !43, entity: !1296, file: !1252, line: 104)
!1296 = !DISubprogram(name: "wctrans", scope: !1247, file: !1247, line: 52, type: !1297, flags: DIFlagPrototyped, spFlags: 0)
!1297 = !DISubroutineType(types: !1298)
!1298 = !{!1246, !514}
!1299 = !DIImportedEntity(tag: DW_TAG_imported_declaration, scope: !43, entity: !1300, file: !1252, line: 105)
!1300 = !DISubprogram(name: "wctype", scope: !1255, file: !1255, line: 155, type: !1301, flags: DIFlagPrototyped, spFlags: 0)
!1301 = !DISubroutineType(types: !1302)
!1302 = !{!1254, !514}
!1303 = !DIImportedEntity(tag: DW_TAG_imported_declaration, scope: !39, entity: !901, file: !1304, line: 38)
!1304 = !DIFile(filename: "/usr/lib/gcc/x86_64-linux-gnu/13/../../../../include/c++/13/stdlib.h", directory: "", checksumkind: CSK_MD5, checksum: "3f24ff2a8eef595875da96e5466bd4aa")
!1305 = !DIImportedEntity(tag: DW_TAG_imported_declaration, scope: !39, entity: !909, file: !1304, line: 39)
!1306 = !DIImportedEntity(tag: DW_TAG_imported_declaration, scope: !39, entity: !942, file: !1304, line: 40)
!1307 = !DIImportedEntity(tag: DW_TAG_imported_declaration, scope: !39, entity: !914, file: !1304, line: 43)
!1308 = !DIImportedEntity(tag: DW_TAG_imported_declaration, scope: !39, entity: !982, file: !1304, line: 46)
!1309 = !DIImportedEntity(tag: DW_TAG_imported_declaration, scope: !39, entity: !1026, file: !1304, line: 49)
!1310 = !DIImportedEntity(tag: DW_TAG_imported_declaration, scope: !39, entity: !891, file: !1304, line: 54)
!1311 = !DIImportedEntity(tag: DW_TAG_imported_declaration, scope: !39, entity: !895, file: !1304, line: 55)
!1312 = !DIImportedEntity(tag: DW_TAG_imported_declaration, scope: !39, entity: !1313, file: !1304, line: 57)
!1313 = !DISubprogram(name: "abs", linkageName: "_ZSt3absg", scope: !43, file: !889, line: 137, type: !1314, flags: DIFlagPrototyped, spFlags: 0)
!1314 = !DISubroutineType(types: !1315)
!1315 = !{!1316, !1316}
!1316 = !DIBasicType(name: "__float128", size: 128, encoding: DW_ATE_float)
!1317 = !DIImportedEntity(tag: DW_TAG_imported_declaration, scope: !39, entity: !916, file: !1304, line: 58)
!1318 = !DIImportedEntity(tag: DW_TAG_imported_declaration, scope: !39, entity: !920, file: !1304, line: 59)
!1319 = !DIImportedEntity(tag: DW_TAG_imported_declaration, scope: !39, entity: !924, file: !1304, line: 60)
!1320 = !DIImportedEntity(tag: DW_TAG_imported_declaration, scope: !39, entity: !928, file: !1304, line: 61)
!1321 = !DIImportedEntity(tag: DW_TAG_imported_declaration, scope: !39, entity: !936, file: !1304, line: 62)
!1322 = !DIImportedEntity(tag: DW_TAG_imported_declaration, scope: !39, entity: !1059, file: !1304, line: 63)
!1323 = !DIImportedEntity(tag: DW_TAG_imported_declaration, scope: !39, entity: !946, file: !1304, line: 64)
!1324 = !DIImportedEntity(tag: DW_TAG_imported_declaration, scope: !39, entity: !950, file: !1304, line: 65)
!1325 = !DIImportedEntity(tag: DW_TAG_imported_declaration, scope: !39, entity: !954, file: !1304, line: 66)
!1326 = !DIImportedEntity(tag: DW_TAG_imported_declaration, scope: !39, entity: !958, file: !1304, line: 67)
!1327 = !DIImportedEntity(tag: DW_TAG_imported_declaration, scope: !39, entity: !962, file: !1304, line: 68)
!1328 = !DIImportedEntity(tag: DW_TAG_imported_declaration, scope: !39, entity: !966, file: !1304, line: 70)
!1329 = !DIImportedEntity(tag: DW_TAG_imported_declaration, scope: !39, entity: !970, file: !1304, line: 71)
!1330 = !DIImportedEntity(tag: DW_TAG_imported_declaration, scope: !39, entity: !974, file: !1304, line: 72)
!1331 = !DIImportedEntity(tag: DW_TAG_imported_declaration, scope: !39, entity: !978, file: !1304, line: 74)
!1332 = !DIImportedEntity(tag: DW_TAG_imported_declaration, scope: !39, entity: !984, file: !1304, line: 75)
!1333 = !DIImportedEntity(tag: DW_TAG_imported_declaration, scope: !39, entity: !988, file: !1304, line: 76)
!1334 = !DIImportedEntity(tag: DW_TAG_imported_declaration, scope: !39, entity: !992, file: !1304, line: 77)
!1335 = !DIImportedEntity(tag: DW_TAG_imported_declaration, scope: !39, entity: !996, file: !1304, line: 78)
!1336 = !DIImportedEntity(tag: DW_TAG_imported_declaration, scope: !39, entity: !1002, file: !1304, line: 79)
!1337 = !DIImportedEntity(tag: DW_TAG_imported_declaration, scope: !39, entity: !1006, file: !1304, line: 80)
!1338 = !DIImportedEntity(tag: DW_TAG_imported_declaration, scope: !39, entity: !1010, file: !1304, line: 81)
!1339 = !DIImportedEntity(tag: DW_TAG_imported_declaration, scope: !39, entity: !1012, file: !1304, line: 83)
!1340 = !DIImportedEntity(tag: DW_TAG_imported_declaration, scope: !39, entity: !1016, file: !1304, line: 84)
!1341 = !{i32 7, !"Dwarf Version", i32 5}
!1342 = !{i32 2, !"Debug Info Version", i32 3}
!1343 = !{i32 1, !"wchar_size", i32 4}
!1344 = !{i32 7, !"openmp", i32 51}
!1345 = !{i32 8, !"PIC Level", i32 2}
!1346 = !{i32 7, !"PIE Level", i32 2}
!1347 = !{i32 7, !"uwtable", i32 2}
!1348 = !{i32 7, !"frame-pointer", i32 2}
!1349 = !{!"clang version 21.0.0git (https://github.com/llvm/llvm-project.git e4c3b037bc7f5d9a8089de4c509d3e6034735891)"}
!1350 = distinct !DISubprogram(name: "main", scope: !2, file: !2, line: 6, type: !985, scopeLine: 6, flags: DIFlagPrototyped, spFlags: DISPFlagDefinition, unit: !39, retainedNodes: !176)
!1351 = !DILocalVariable(name: "N", scope: !1350, file: !2, line: 7, type: !106)
!1352 = !DILocation(line: 7, column: 15, scope: !1350)
!1353 = !DILocalVariable(name: "data", scope: !1350, file: !2, line: 8, type: !42)
!1354 = !DILocation(line: 8, column: 22, scope: !1350)
!1355 = !DILocation(line: 8, column: 30, scope: !1350)
!1356 = !DILocalVariable(name: "this", arg: 1, scope: !1357, type: !1358, flags: DIFlagArtificial | DIFlagObjectPointer)
!1357 = distinct !DISubprogram(name: "allocator", linkageName: "_ZNSaIiEC2Ev", scope: !71, file: !72, line: 163, type: !128, scopeLine: 163, flags: DIFlagPrototyped, spFlags: DISPFlagDefinition, unit: !39, declaration: !127, retainedNodes: !176)
!1358 = !DIDerivedType(tag: DW_TAG_pointer_type, baseType: !71, size: 64)
!1359 = !DILocation(line: 0, scope: !1357, inlinedAt: !1360)
!1360 = distinct !DILocation(line: 8, column: 22, scope: !1350)
!1361 = !DILocalVariable(name: "this", arg: 1, scope: !1362, type: !1363, flags: DIFlagArtificial | DIFlagObjectPointer)
!1362 = distinct !DISubprogram(name: "__new_allocator", linkageName: "_ZNSt15__new_allocatorIiEC2Ev", scope: !77, file: !78, line: 88, type: !81, scopeLine: 88, flags: DIFlagPrototyped, spFlags: DISPFlagDefinition, unit: !39, declaration: !80, retainedNodes: !176)
!1363 = !DIDerivedType(tag: DW_TAG_pointer_type, baseType: !77, size: 64)
!1364 = !DILocation(line: 0, scope: !1362, inlinedAt: !1365)
!1365 = distinct !DILocation(line: 163, column: 7, scope: !1357, inlinedAt: !1360)
!1366 = !DILocalVariable(name: "this", arg: 1, scope: !1367, type: !1358, flags: DIFlagArtificial | DIFlagObjectPointer)
!1367 = distinct !DISubprogram(name: "~allocator", linkageName: "_ZNSaIiED2Ev", scope: !71, file: !72, line: 184, type: !128, scopeLine: 184, flags: DIFlagPrototyped, spFlags: DISPFlagDefinition, unit: !39, declaration: !140, retainedNodes: !176)
!1368 = !DILocation(line: 0, scope: !1367, inlinedAt: !1369)
!1369 = distinct !DILocation(line: 8, column: 22, scope: !1350)
!1370 = !DILocation(line: 184, column: 39, scope: !1371, inlinedAt: !1369)
!1371 = distinct !DILexicalBlock(scope: !1367, file: !72, line: 184, column: 37)
!1372 = !DILocalVariable(name: "sum", scope: !1350, file: !2, line: 9, type: !68)
!1373 = !DILocation(line: 9, column: 9, scope: !1350)
!1374 = !DILocation(line: 12, column: 5, scope: !1350)
!1375 = !DILocation(line: 17, column: 15, scope: !1350)
!1376 = !DILocation(line: 17, column: 59, scope: !1350)
!1377 = !DILocation(line: 17, column: 56, scope: !1350)
!1378 = !DILocation(line: 17, column: 63, scope: !1350)
!1379 = !DILocalVariable(name: "x", scope: !1350, file: !2, line: 20, type: !68)
!1380 = !DILocation(line: 20, column: 9, scope: !1350)
!1381 = !DILocalVariable(name: "y", scope: !1350, file: !2, line: 20, type: !68)
!1382 = !DILocation(line: 20, column: 16, scope: !1350)
!1383 = !DILocation(line: 21, column: 5, scope: !1350)
!1384 = !DILocation(line: 29, column: 15, scope: !1350)
!1385 = !DILocation(line: 29, column: 27, scope: !1350)
!1386 = !DILocation(line: 29, column: 24, scope: !1350)
!1387 = !DILocation(line: 29, column: 29, scope: !1350)
!1388 = !DILocation(line: 29, column: 43, scope: !1350)
!1389 = !DILocation(line: 29, column: 40, scope: !1350)
!1390 = !DILocation(line: 29, column: 45, scope: !1350)
!1391 = !DILocalVariable(name: "counter", scope: !1350, file: !2, line: 32, type: !68)
!1392 = !DILocation(line: 32, column: 9, scope: !1350)
!1393 = !DILocation(line: 33, column: 5, scope: !1350)
!1394 = !DILocation(line: 38, column: 15, scope: !1350)
!1395 = !DILocation(line: 38, column: 49, scope: !1350)
!1396 = !DILocation(line: 38, column: 46, scope: !1350)
!1397 = !DILocation(line: 38, column: 57, scope: !1350)
!1398 = !DILocalVariable(name: "atomic_counter", scope: !1350, file: !2, line: 41, type: !68)
!1399 = !DILocation(line: 41, column: 9, scope: !1350)
!1400 = !DILocation(line: 42, column: 5, scope: !1350)
!1401 = !DILocation(line: 47, column: 15, scope: !1350)
!1402 = !DILocation(line: 47, column: 40, scope: !1350)
!1403 = !DILocation(line: 47, column: 37, scope: !1350)
!1404 = !DILocation(line: 47, column: 55, scope: !1350)
!1405 = !DILocalVariable(name: ".omp.iv", scope: !1406, type: !68, flags: DIFlagArtificial)
!1406 = distinct !DILexicalBlock(scope: !1350, file: !2, line: 50, column: 5)
!1407 = !DILocation(line: 0, scope: !1406)
!1408 = !DILocation(line: 51, column: 10, scope: !1406)
!1409 = !DILocalVariable(name: "i", scope: !1406, type: !68, flags: DIFlagArtificial)
!1410 = !DILocation(line: 50, column: 5, scope: !1350)
!1411 = distinct !{}
!1412 = !DILocation(line: 51, column: 5, scope: !1406)
!1413 = !DILocation(line: 51, column: 28, scope: !1406)
!1414 = !DILocation(line: 52, column: 14, scope: !1415)
!1415 = distinct !DILexicalBlock(scope: !1406, file: !2, line: 51, column: 33)
!1416 = !DILocation(line: 52, column: 9, scope: !1415)
!1417 = !DILocation(line: 52, column: 17, scope: !1415)
!1418 = !DILocation(line: 53, column: 5, scope: !1415)
!1419 = !DILocation(line: 50, column: 5, scope: !1406)
!1420 = distinct !{!1420, !1419, !1421, !1422, !1423}
!1421 = !DILocation(line: 50, column: 21, scope: !1406)
!1422 = !{!"llvm.loop.parallel_accesses", !1411}
!1423 = !{!"llvm.loop.vectorize.enable", i1 true}
!1424 = !DILocation(line: 58, column: 1, scope: !1350)
!1425 = !DILocation(line: 0, scope: !1367, inlinedAt: !1426)
!1426 = distinct !DILocation(line: 8, column: 22, scope: !1350)
!1427 = !DILocation(line: 184, column: 39, scope: !1371, inlinedAt: !1426)
!1428 = !DILocation(line: 55, column: 15, scope: !1350)
!1429 = !DILocation(line: 55, column: 55, scope: !1350)
!1430 = !DILocation(line: 55, column: 52, scope: !1350)
!1431 = !DILocation(line: 55, column: 63, scope: !1350)
!1432 = !DILocation(line: 57, column: 5, scope: !1350)
!1433 = distinct !DISubprogram(name: "vector", linkageName: "_ZNSt6vectorIiSaIiEEC2EmRKiRKS0_", scope: !42, file: !35, line: 569, type: !335, scopeLine: 572, flags: DIFlagPrototyped, spFlags: DISPFlagDefinition, unit: !39, declaration: !334, retainedNodes: !176)
!1434 = !DILocalVariable(name: "this", arg: 1, scope: !1433, type: !1435, flags: DIFlagArtificial | DIFlagObjectPointer)
!1435 = !DIDerivedType(tag: DW_TAG_pointer_type, baseType: !42, size: 64)
!1436 = !DILocation(line: 0, scope: !1433)
!1437 = !DILocalVariable(name: "__n", arg: 2, scope: !1433, file: !35, line: 569, type: !333)
!1438 = !DILocation(line: 569, column: 24, scope: !1433)
!1439 = !DILocalVariable(name: "__value", arg: 3, scope: !1433, file: !35, line: 569, type: !337)
!1440 = !DILocation(line: 569, column: 47, scope: !1433)
!1441 = !DILocalVariable(name: "__a", arg: 4, scope: !1433, file: !35, line: 570, type: !327)
!1442 = !DILocation(line: 570, column: 29, scope: !1433)
!1443 = !DILocation(line: 571, column: 33, scope: !1433)
!1444 = !DILocation(line: 571, column: 38, scope: !1433)
!1445 = !DILocation(line: 571, column: 15, scope: !1433)
!1446 = !DILocation(line: 571, column: 44, scope: !1433)
!1447 = !DILocation(line: 571, column: 9, scope: !1433)
!1448 = !DILocation(line: 572, column: 28, scope: !1449)
!1449 = distinct !DILexicalBlock(scope: !1433, file: !35, line: 572, column: 7)
!1450 = !DILocation(line: 572, column: 33, scope: !1449)
!1451 = !{i64 4}
!1452 = !DILocation(line: 572, column: 9, scope: !1449)
!1453 = !DILocation(line: 572, column: 43, scope: !1433)
!1454 = !DILocation(line: 572, column: 43, scope: !1449)
!1455 = distinct !DISubprogram(name: "main.omp_outlined_debug__", scope: !2, file: !2, line: 13, type: !1456, scopeLine: 13, flags: DIFlagArtificial | DIFlagPrototyped, spFlags: DISPFlagLocalToUnit | DISPFlagDefinition, unit: !39, retainedNodes: !176)
!1456 = !DISubroutineType(types: !1457)
!1457 = !{null, !1458, !1458, !100, !377, !108}
!1458 = !DIDerivedType(tag: DW_TAG_const_type, baseType: !1459)
!1459 = !DIDerivedType(tag: DW_TAG_restrict_type, baseType: !105)
!1460 = !DILocalVariable(name: ".global_tid.", arg: 1, scope: !1455, type: !1458, flags: DIFlagArtificial)
!1461 = !DILocation(line: 0, scope: !1455)
!1462 = !DILocalVariable(name: ".bound_tid.", arg: 2, scope: !1455, type: !1458, flags: DIFlagArtificial)
!1463 = !DILocalVariable(name: "sum", arg: 3, scope: !1455, file: !2, line: 9, type: !100)
!1464 = !DILocation(line: 9, column: 9, scope: !1455)
!1465 = !DILocalVariable(name: "data", arg: 4, scope: !1455, file: !2, line: 8, type: !377)
!1466 = !DILocation(line: 8, column: 22, scope: !1455)
!1467 = !DILocalVariable(name: "N", arg: 5, scope: !1455, file: !2, line: 7, type: !108)
!1468 = !DILocation(line: 7, column: 15, scope: !1455)
!1469 = !DILocation(line: 13, column: 5, scope: !1455)
!1470 = !{i64 8}
!1471 = !DILocalVariable(name: ".omp.iv", scope: !1455, type: !68, flags: DIFlagArtificial)
!1472 = !DILocalVariable(name: ".omp.lb", scope: !1455, type: !68, flags: DIFlagArtificial)
!1473 = !DILocation(line: 13, column: 10, scope: !1455)
!1474 = !DILocalVariable(name: ".omp.ub", scope: !1455, type: !68, flags: DIFlagArtificial)
!1475 = !DILocalVariable(name: ".omp.stride", scope: !1455, type: !68, flags: DIFlagArtificial)
!1476 = !DILocalVariable(name: ".omp.is_last", scope: !1455, type: !68, flags: DIFlagArtificial)
!1477 = !DILocalVariable(name: "sum", scope: !1455, type: !68, flags: DIFlagArtificial)
!1478 = !DILocation(line: 12, column: 42, scope: !1455)
!1479 = !DILocalVariable(name: "i", scope: !1455, type: !68, flags: DIFlagArtificial)
!1480 = !DILocation(line: 12, column: 5, scope: !1455)
!1481 = !DILocation(line: 13, column: 28, scope: !1455)
!1482 = !DILocation(line: 14, column: 21, scope: !1483)
!1483 = distinct !DILexicalBlock(scope: !1455, file: !2, line: 13, column: 33)
!1484 = !DILocation(line: 14, column: 16, scope: !1483)
!1485 = !DILocation(line: 14, column: 13, scope: !1483)
!1486 = !DILocation(line: 15, column: 5, scope: !1483)
!1487 = distinct !{!1487, !1480, !1488}
!1488 = !DILocation(line: 12, column: 46, scope: !1455)
!1489 = !DILocation(line: 12, column: 40, scope: !1455)
!1490 = !DILocation(line: 15, column: 5, scope: !1455)
!1491 = distinct !DISubprogram(name: "main.omp_outlined", scope: !2, file: !2, line: 12, type: !1456, scopeLine: 12, flags: DIFlagArtificial | DIFlagPrototyped, spFlags: DISPFlagLocalToUnit | DISPFlagDefinition, unit: !39, retainedNodes: !176)
!1492 = !DILocalVariable(name: ".global_tid.", arg: 1, scope: !1491, type: !1458, flags: DIFlagArtificial)
!1493 = !DILocation(line: 0, scope: !1491)
!1494 = !DILocalVariable(name: ".bound_tid.", arg: 2, scope: !1491, type: !1458, flags: DIFlagArtificial)
!1495 = !DILocalVariable(name: "sum", arg: 3, scope: !1491, type: !100, flags: DIFlagArtificial)
!1496 = !DILocalVariable(name: "data", arg: 4, scope: !1491, type: !377, flags: DIFlagArtificial)
!1497 = !DILocalVariable(name: "N", arg: 5, scope: !1491, type: !108, flags: DIFlagArtificial)
!1498 = !DILocation(line: 12, column: 5, scope: !1491)
!1499 = distinct !DISubprogram(name: "operator[]", linkageName: "_ZNSt6vectorIiSaIiEEixEm", scope: !42, file: !35, line: 1126, type: !435, scopeLine: 1127, flags: DIFlagPrototyped, spFlags: DISPFlagDefinition, unit: !39, declaration: !434, retainedNodes: !176)
!1500 = !DILocalVariable(name: "this", arg: 1, scope: !1499, type: !1435, flags: DIFlagArtificial | DIFlagObjectPointer)
!1501 = !DILocation(line: 0, scope: !1499)
!1502 = !DILocalVariable(name: "__n", arg: 2, scope: !1499, file: !35, line: 1126, type: !333)
!1503 = !DILocation(line: 1126, column: 28, scope: !1499)
!1504 = !DILocation(line: 1129, column: 17, scope: !1499)
!1505 = !DILocation(line: 1129, column: 25, scope: !1499)
!1506 = !DILocation(line: 1129, column: 36, scope: !1499)
!1507 = !DILocation(line: 1129, column: 34, scope: !1499)
!1508 = !DILocation(line: 1129, column: 2, scope: !1499)
!1509 = distinct !DISubprogram(linkageName: "main.omp_outlined_debug__.omp.reduction.reduction_func", scope: !2, file: !2, line: 12, type: !1510, scopeLine: 12, flags: DIFlagArtificial, spFlags: DISPFlagLocalToUnit | DISPFlagDefinition, unit: !39, retainedNodes: !176)
!1510 = !DISubroutineType(types: !176)
!1511 = !DILocalVariable(arg: 1, scope: !1509, type: !662, flags: DIFlagArtificial)
!1512 = !DILocation(line: 0, scope: !1509)
!1513 = !DILocalVariable(arg: 2, scope: !1509, type: !662, flags: DIFlagArtificial)
!1514 = !DILocation(line: 12, column: 46, scope: !1509)
!1515 = !DILocation(line: 12, column: 42, scope: !1509)
!1516 = !DILocation(line: 12, column: 40, scope: !1509)
!1517 = !{!1518}
!1518 = !{i64 2, i64 -1, i64 -1, i1 true}
!1519 = distinct !DISubprogram(name: "main.omp_outlined_debug__.2", scope: !2, file: !2, line: 22, type: !1520, scopeLine: 22, flags: DIFlagArtificial | DIFlagPrototyped, spFlags: DISPFlagLocalToUnit | DISPFlagDefinition, unit: !39, retainedNodes: !176)
!1520 = !DISubroutineType(types: !1521)
!1521 = !{null, !1458, !1458, !100, !100}
!1522 = !DILocalVariable(name: ".global_tid.", arg: 1, scope: !1519, type: !1458, flags: DIFlagArtificial)
!1523 = !DILocation(line: 0, scope: !1519)
!1524 = !DILocalVariable(name: ".bound_tid.", arg: 2, scope: !1519, type: !1458, flags: DIFlagArtificial)
!1525 = !DILocalVariable(name: "x", arg: 3, scope: !1519, file: !2, line: 20, type: !100)
!1526 = !DILocation(line: 20, column: 9, scope: !1519)
!1527 = !DILocalVariable(name: "y", arg: 4, scope: !1519, file: !2, line: 20, type: !100)
!1528 = !DILocation(line: 20, column: 16, scope: !1519)
!1529 = !DILocation(line: 22, column: 5, scope: !1519)
!1530 = !DILocation(line: 21, column: 5, scope: !1519)
!1531 = !DILocation(line: 24, column: 11, scope: !1532)
!1532 = distinct !DILexicalBlock(scope: !1519, file: !2, line: 23, column: 9)
!1533 = !DILocation(line: 23, column: 28, scope: !1532)
!1534 = !DILocation(line: 27, column: 11, scope: !1535)
!1535 = distinct !DILexicalBlock(scope: !1519, file: !2, line: 26, column: 9)
!1536 = !DILocation(line: 26, column: 28, scope: !1535)
!1537 = distinct !{!1537, !1530, !1538}
!1538 = !DILocation(line: 21, column: 34, scope: !1519)
!1539 = !DILocation(line: 28, column: 5, scope: !1519)
!1540 = distinct !DISubprogram(name: "main.omp_outlined.1", scope: !2, file: !2, line: 21, type: !1520, scopeLine: 21, flags: DIFlagArtificial | DIFlagPrototyped, spFlags: DISPFlagLocalToUnit | DISPFlagDefinition, unit: !39, retainedNodes: !176)
!1541 = !DILocalVariable(name: ".global_tid.", arg: 1, scope: !1540, type: !1458, flags: DIFlagArtificial)
!1542 = !DILocation(line: 0, scope: !1540)
!1543 = !DILocalVariable(name: ".bound_tid.", arg: 2, scope: !1540, type: !1458, flags: DIFlagArtificial)
!1544 = !DILocalVariable(name: "x", arg: 3, scope: !1540, type: !100, flags: DIFlagArtificial)
!1545 = !DILocalVariable(name: "y", arg: 4, scope: !1540, type: !100, flags: DIFlagArtificial)
!1546 = !DILocation(line: 21, column: 5, scope: !1540)
!1547 = distinct !DISubprogram(name: "main.omp_outlined_debug__.6", scope: !2, file: !2, line: 34, type: !1548, scopeLine: 34, flags: DIFlagArtificial | DIFlagPrototyped, spFlags: DISPFlagLocalToUnit | DISPFlagDefinition, unit: !39, retainedNodes: !176)
!1548 = !DISubroutineType(types: !1549)
!1549 = !{null, !1458, !1458, !100}
!1550 = !DILocalVariable(name: ".global_tid.", arg: 1, scope: !1547, type: !1458, flags: DIFlagArtificial)
!1551 = !DILocation(line: 0, scope: !1547)
!1552 = !DILocalVariable(name: ".bound_tid.", arg: 2, scope: !1547, type: !1458, flags: DIFlagArtificial)
!1553 = !DILocalVariable(name: "counter", arg: 3, scope: !1547, file: !2, line: 32, type: !100)
!1554 = !DILocation(line: 32, column: 9, scope: !1547)
!1555 = !DILocation(line: 34, column: 5, scope: !1547)
!1556 = !DILocalVariable(name: ".omp.iv", scope: !1547, type: !68, flags: DIFlagArtificial)
!1557 = !DILocalVariable(name: ".omp.lb", scope: !1547, type: !68, flags: DIFlagArtificial)
!1558 = !DILocation(line: 34, column: 10, scope: !1547)
!1559 = !DILocalVariable(name: ".omp.ub", scope: !1547, type: !68, flags: DIFlagArtificial)
!1560 = !DILocalVariable(name: ".omp.stride", scope: !1547, type: !68, flags: DIFlagArtificial)
!1561 = !DILocalVariable(name: ".omp.is_last", scope: !1547, type: !68, flags: DIFlagArtificial)
!1562 = !DILocalVariable(name: "i", scope: !1547, type: !68, flags: DIFlagArtificial)
!1563 = !DILocation(line: 33, column: 5, scope: !1547)
!1564 = !DILocation(line: 34, column: 28, scope: !1547)
!1565 = !DILocation(line: 35, column: 9, scope: !1566)
!1566 = distinct !DILexicalBlock(scope: !1567, file: !2, line: 35, column: 9)
!1567 = distinct !DILexicalBlock(scope: !1547, file: !2, line: 34, column: 33)
!1568 = !DILocation(line: 36, column: 17, scope: !1566)
!1569 = !DILocation(line: 36, column: 9, scope: !1566)
!1570 = !DILocation(line: 37, column: 5, scope: !1567)
!1571 = distinct !{!1571, !1563, !1572}
!1572 = !DILocation(line: 33, column: 29, scope: !1547)
!1573 = !DILocation(line: 37, column: 5, scope: !1547)
!1574 = distinct !DISubprogram(name: "main.omp_outlined.5", scope: !2, file: !2, line: 33, type: !1548, scopeLine: 33, flags: DIFlagArtificial | DIFlagPrototyped, spFlags: DISPFlagLocalToUnit | DISPFlagDefinition, unit: !39, retainedNodes: !176)
!1575 = !DILocalVariable(name: ".global_tid.", arg: 1, scope: !1574, type: !1458, flags: DIFlagArtificial)
!1576 = !DILocation(line: 0, scope: !1574)
!1577 = !DILocalVariable(name: ".bound_tid.", arg: 2, scope: !1574, type: !1458, flags: DIFlagArtificial)
!1578 = !DILocalVariable(name: "counter", arg: 3, scope: !1574, type: !100, flags: DIFlagArtificial)
!1579 = !DILocation(line: 33, column: 5, scope: !1574)
!1580 = distinct !DISubprogram(name: "main.omp_outlined_debug__.9", scope: !2, file: !2, line: 43, type: !1548, scopeLine: 43, flags: DIFlagArtificial | DIFlagPrototyped, spFlags: DISPFlagLocalToUnit | DISPFlagDefinition, unit: !39, retainedNodes: !176)
!1581 = !DILocalVariable(name: ".global_tid.", arg: 1, scope: !1580, type: !1458, flags: DIFlagArtificial)
!1582 = !DILocation(line: 0, scope: !1580)
!1583 = !DILocalVariable(name: ".bound_tid.", arg: 2, scope: !1580, type: !1458, flags: DIFlagArtificial)
!1584 = !DILocalVariable(name: "atomic_counter", arg: 3, scope: !1580, file: !2, line: 41, type: !100)
!1585 = !DILocation(line: 41, column: 9, scope: !1580)
!1586 = !DILocation(line: 43, column: 5, scope: !1580)
!1587 = !DILocalVariable(name: ".omp.iv", scope: !1580, type: !68, flags: DIFlagArtificial)
!1588 = !DILocalVariable(name: ".omp.lb", scope: !1580, type: !68, flags: DIFlagArtificial)
!1589 = !DILocation(line: 43, column: 10, scope: !1580)
!1590 = !DILocalVariable(name: ".omp.ub", scope: !1580, type: !68, flags: DIFlagArtificial)
!1591 = !DILocalVariable(name: ".omp.stride", scope: !1580, type: !68, flags: DIFlagArtificial)
!1592 = !DILocalVariable(name: ".omp.is_last", scope: !1580, type: !68, flags: DIFlagArtificial)
!1593 = !DILocalVariable(name: "i", scope: !1580, type: !68, flags: DIFlagArtificial)
!1594 = !DILocation(line: 42, column: 5, scope: !1580)
!1595 = !DILocation(line: 43, column: 28, scope: !1580)
!1596 = !DILocation(line: 45, column: 9, scope: !1597)
!1597 = distinct !DILexicalBlock(scope: !1598, file: !2, line: 44, column: 9)
!1598 = distinct !DILexicalBlock(scope: !1580, file: !2, line: 43, column: 33)
!1599 = !DILocation(line: 46, column: 5, scope: !1598)
!1600 = distinct !{!1600, !1594, !1601}
!1601 = !DILocation(line: 42, column: 29, scope: !1580)
!1602 = !DILocation(line: 46, column: 5, scope: !1580)
!1603 = distinct !DISubprogram(name: "main.omp_outlined.8", scope: !2, file: !2, line: 42, type: !1548, scopeLine: 42, flags: DIFlagArtificial | DIFlagPrototyped, spFlags: DISPFlagLocalToUnit | DISPFlagDefinition, unit: !39, retainedNodes: !176)
!1604 = !DILocalVariable(name: ".global_tid.", arg: 1, scope: !1603, type: !1458, flags: DIFlagArtificial)
!1605 = !DILocation(line: 0, scope: !1603)
!1606 = !DILocalVariable(name: ".bound_tid.", arg: 2, scope: !1603, type: !1458, flags: DIFlagArtificial)
!1607 = !DILocalVariable(name: "atomic_counter", arg: 3, scope: !1603, type: !100, flags: DIFlagArtificial)
!1608 = !DILocation(line: 42, column: 5, scope: !1603)
!1609 = distinct !DISubprogram(name: "~vector", linkageName: "_ZNSt6vectorIiSaIiEED2Ev", scope: !42, file: !35, line: 733, type: !321, scopeLine: 734, flags: DIFlagPrototyped, spFlags: DISPFlagDefinition, unit: !39, declaration: !373, retainedNodes: !176)
!1610 = !DILocalVariable(name: "this", arg: 1, scope: !1609, type: !1435, flags: DIFlagArtificial | DIFlagObjectPointer)
!1611 = !DILocation(line: 0, scope: !1609)
!1612 = !DILocation(line: 735, column: 22, scope: !1613)
!1613 = distinct !DILexicalBlock(scope: !1609, file: !35, line: 734, column: 7)
!1614 = !DILocation(line: 735, column: 30, scope: !1613)
!1615 = !DILocation(line: 735, column: 46, scope: !1613)
!1616 = !DILocation(line: 735, column: 54, scope: !1613)
!1617 = !DILocation(line: 736, column: 9, scope: !1613)
!1618 = !DILocalVariable(name: "__first", arg: 1, scope: !1619, file: !61, line: 945, type: !67)
!1619 = distinct !DISubprogram(name: "_Destroy<int *, int>", linkageName: "_ZSt8_DestroyIPiiEvT_S1_RSaIT0_E", scope: !43, file: !61, line: 945, type: !1620, scopeLine: 947, flags: DIFlagPrototyped, spFlags: DISPFlagDefinition, unit: !39, templateParams: !1622, retainedNodes: !176)
!1620 = !DISubroutineType(types: !1621)
!1621 = !{null, !67, !67, !139}
!1622 = !{!1623, !126}
!1623 = !DITemplateTypeParameter(name: "_ForwardIterator", type: !67)
!1624 = !DILocation(line: 945, column: 31, scope: !1619, inlinedAt: !1625)
!1625 = distinct !DILocation(line: 735, column: 2, scope: !1613)
!1626 = !DILocalVariable(name: "__last", arg: 2, scope: !1619, file: !61, line: 945, type: !67)
!1627 = !DILocation(line: 945, column: 57, scope: !1619, inlinedAt: !1625)
!1628 = !DILocalVariable(arg: 3, scope: !1619, file: !61, line: 946, type: !139)
!1629 = !DILocation(line: 946, column: 22, scope: !1619, inlinedAt: !1625)
!1630 = !DILocation(line: 948, column: 21, scope: !1619, inlinedAt: !1625)
!1631 = !DILocation(line: 948, column: 30, scope: !1619, inlinedAt: !1625)
!1632 = !DILocation(line: 948, column: 7, scope: !1619, inlinedAt: !1625)
!1633 = !DILocation(line: 949, column: 5, scope: !1619, inlinedAt: !1625)
!1634 = !DILocation(line: 738, column: 7, scope: !1613)
!1635 = !DILocation(line: 738, column: 7, scope: !1609)
!1636 = !DILocation(line: 735, column: 2, scope: !1613)
!1637 = distinct !DISubprogram(name: "_S_check_init_len", linkageName: "_ZNSt6vectorIiSaIiEE17_S_check_init_lenEmRKS0_", scope: !42, file: !35, line: 1907, type: !516, scopeLine: 1908, flags: DIFlagPrototyped, spFlags: DISPFlagDefinition, unit: !39, declaration: !515, retainedNodes: !176)
!1638 = !DILocalVariable(name: "__n", arg: 1, scope: !1637, file: !35, line: 1907, type: !333)
!1639 = !DILocation(line: 1907, column: 35, scope: !1637)
!1640 = !DILocalVariable(name: "__a", arg: 2, scope: !1637, file: !35, line: 1907, type: !327)
!1641 = !DILocation(line: 1907, column: 62, scope: !1637)
!1642 = !DILocation(line: 1909, column: 6, scope: !1643)
!1643 = distinct !DILexicalBlock(scope: !1637, file: !35, line: 1909, column: 6)
!1644 = !DILocation(line: 1909, column: 39, scope: !1643)
!1645 = !DILocalVariable(name: "this", arg: 1, scope: !1646, type: !1358, flags: DIFlagArtificial | DIFlagObjectPointer)
!1646 = distinct !DISubprogram(name: "allocator", linkageName: "_ZNSaIiEC2ERKS_", scope: !71, file: !72, line: 167, type: !132, scopeLine: 168, flags: DIFlagPrototyped, spFlags: DISPFlagDefinition, unit: !39, declaration: !131, retainedNodes: !176)
!1647 = !DILocation(line: 0, scope: !1646, inlinedAt: !1648)
!1648 = distinct !DILocation(line: 1909, column: 24, scope: !1643)
!1649 = !DILocalVariable(name: "__a", arg: 2, scope: !1646, file: !72, line: 167, type: !134)
!1650 = !DILocation(line: 167, column: 34, scope: !1646, inlinedAt: !1648)
!1651 = !DILocation(line: 168, column: 31, scope: !1646, inlinedAt: !1648)
!1652 = !DILocalVariable(name: "this", arg: 1, scope: !1653, type: !1363, flags: DIFlagArtificial | DIFlagObjectPointer)
!1653 = distinct !DISubprogram(name: "__new_allocator", linkageName: "_ZNSt15__new_allocatorIiEC2ERKS0_", scope: !77, file: !78, line: 92, type: !85, scopeLine: 92, flags: DIFlagPrototyped, spFlags: DISPFlagDefinition, unit: !39, declaration: !84, retainedNodes: !176)
!1654 = !DILocation(line: 0, scope: !1653, inlinedAt: !1655)
!1655 = distinct !DILocation(line: 168, column: 9, scope: !1646, inlinedAt: !1648)
!1656 = !DILocalVariable(arg: 2, scope: !1653, file: !78, line: 92, type: !87)
!1657 = !DILocation(line: 92, column: 45, scope: !1653, inlinedAt: !1655)
!1658 = !DILocation(line: 1909, column: 12, scope: !1643)
!1659 = !DILocation(line: 1909, column: 10, scope: !1643)
!1660 = !DILocation(line: 0, scope: !1367, inlinedAt: !1661)
!1661 = distinct !DILocation(line: 1909, column: 6, scope: !1643)
!1662 = !DILocation(line: 184, column: 39, scope: !1371, inlinedAt: !1661)
!1663 = !DILocation(line: 1910, column: 4, scope: !1643)
!1664 = !DILocation(line: 1912, column: 9, scope: !1637)
!1665 = !DILocation(line: 1912, column: 2, scope: !1637)
